Certificate:
    Data:
        Version: 3 (0x2)
        Serial Number: 1 (0x1)
    Signature Algorithm: sha256WithRSAEncryption
        Issuer: O=test, OU=black, CN=ca
        Validity
            Not Before: Sep  4 16:36:51 2014 GMT
            Not After : Sep  1 16:36:51 2024 GMT
        Subject: O=advancedfiltering, OU=hosts, CN=test-smtp-black
        Subject Public Key Info:
            Public Key Algorithm: rsaEncryption
                Public-Key: (2048 bit)
                Modulus:
                    00:b8:36:97:1e:7d:97:ad:1a:7b:1a:76:19:75:a0:
                    d0:19:04:85:50:a8:79:43:19:f3:29:81:f6:cc:a9:
                    80:53:76:a6:f7:be:c7:69:a2:48:03:10:72:ff:72:
                    be:3e:55:8c:1b:03:49:83:f0:a9:99:ac:a7:db:48:
                    bc:b0:b6:12:97:ab:34:5a:cb:13:37:d0:7f:23:83:
                    bf:ec:56:83:b2:0a:0b:7c:60:c4:0b:e1:31:6c:f7:
                    c9:0c:10:04:b8:19:07:73:3b:6a:17:c6:c0:d5:fb:
                    6a:2b:2d:f1:f9:99:a8:f6:6e:dd:28:d1:58:8d:f9:
                    29:c4:5d:58:2e:17:4c:0a:87:db:cc:e2:2b:aa:84:
                    4e:4a:db:4d:8f:bc:b9:9d:bc:d8:bb:09:df:32:ed:
                    7c:f3:b7:30:e6:0d:07:e7:d6:f5:ac:4e:b3:ba:d8:
                    f0:aa:43:5b:75:de:bd:ce:6c:ca:13:c6:99:9f:66:
                    a0:34:94:4e:79:67:16:f3:8f:0b:3a:aa:56:df:e9:
                    45:4f:37:a9:fc:e0:9b:54:6b:77:4e:38:88:68:f0:
                    3d:c4:9e:28:93:d5:79:91:eb:86:a2:5c:7c:f2:70:
                    2e:e4:f8:1a:d5:85:b9:81:66:53:2a:63:2f:48:17:
                    1b:17:00:cc:25:12:7f:50:1c:6c:ab:f3:97:e1:3d:
                    0d:51
                Exponent: 65537 (0x10001)
        X509v3 extensions:
            X509v3 Basic Constraints: 
                CA:FALSE
            X509v3 Subject Key Identifier: 
                B4:A1:F5:32:09:CD:0F:E7:31:34:9E:82:62:9C:BA:D0:9B:D4:8E:BE
            X509v3 Authority Key Identifier: 
                keyid:0D:B9:41:61:B7:99:BA:B4:F3:E1:0F:C2:E2:E5:F5:68:4B:BA:C1:A0
                DirName:/O=test/OU=black/CN=ca
                serial:C0:41:6B:53:EA:74:A2:48

            X509v3 Extended Key Usage: 
                TLS Web Client Authentication
            X509v3 Key Usage: 
                Digital Signature
    Signature Algorithm: sha256WithRSAEncryption
         37:2e:0d:8b:e4:0c:8d:a1:89:eb:a6:69:12:6d:50:be:63:43:
         a4:53:32:ac:27:7e:6a:a3:d0:4e:95:fb:f3:89:fa:fd:14:fa:
         71:54:70:e3:08:b5:ab:4e:8f:64:ee:5b:74:50:76:2e:88:fe:
         5d:e2:f4:1c:13:3b:df:ef:1f:0d:13:ab:71:bd:df:86:c3:d7:
         99:13:6f:64:8e:dc:6c:1c:7e:e7:90:9f:b8:fa:20:63:54:07:
         6d:8d:75:0a:44:27:a2:bb:2c:c2:a8:12:48:5b:d1:17:c4:ef:
         14:64:a7:cc:58:2c:82:0a:95:13:14:e7:56:b1:45:f1:d8:66:
         9b:a0:b4:51:d5:8e:83:87:a5:73:c9:5b:bb:cd:31:25:b9:af:
         4b:6a:40:2b:a0:25:d2:39:90:5d:0a:aa:1b:df:74:25:23:e9:
         55:eb:57:ce:06:0f:02:7b:8b:fa:14:7d:cc:8e:56:13:9b:af:
         42:d8:a6:0c:27:cd:89:9d:86:8e:c8:c8:27:f6:16:07:2f:1c:
         8a:82:3c:7f:12:7a:4d:e4:a3:2f:a6:56:03:d0:81:2c:54:a2:
         d5:28:08:c3:d4:02:91:30:54:27:c0:55:bf:fc:9e:db:3a:1b:
         2e:56:d7:9b:d0:4a:67:26:bb:71:23:25:c5:0a:d5:ff:d0:96:
         85:02:f7:0f
-----BEGIN CERTIFICATE-----
MIIDmzCCAoOgAwIBAgIBATANBgkqhkiG9w0BAQsFADAsMQ0wCwYDVQQKEwR0ZXN0
MQ4wDAYDVQQLEwVibGFjazELMAkGA1UEAxMCY2EwHhcNMTQwOTA0MTYzNjUxWhcN
MjQwOTAxMTYzNjUxWjBGMRowGAYDVQQKExFhZHZhbmNlZGZpbHRlcmluZzEOMAwG
A1UECxMFaG9zdHMxGDAWBgNVBAMTD3Rlc3Qtc210cC1ibGFjazCCASIwDQYJKoZI
hvcNAQEBBQADggEPADCCAQoCggEBALg2lx59l60aexp2GXWg0BkEhVCoeUMZ8ymB
9sypgFN2pve+x2miSAMQcv9yvj5VjBsDSYPwqZmsp9tIvLC2EperNFrLEzfQfyOD
v+xWg7IKC3xgxAvhMWz3yQwQBLgZB3M7ahfGwNX7aist8fmZqPZu3SjRWI35KcRd
WC4XTAqH28ziK6qETkrbTY+8uZ282LsJ3zLtfPO3MOYNB+fW9axOs7rY8KpDW3Xe
vc5syhPGmZ9moDSUTnlnFvOPCzqqVt/pRU83qfzgm1Rrd044iGjwPcSeKJPVeZHr
hqJcfPJwLuT4GtWFuYFmUypjL0gXGxcAzCUSf1AcbKvzl+E9DVECAwEAAaOBrTCB
qjAJBgNVHRMEAjAAMB0GA1UdDgQWBBS0ofUyCc0P5zE0noJinLrQm9SOvjBcBgNV
HSMEVTBTgBQNuUFht5m6tPPhD8Li5fVoS7rBoKEwpC4wLDENMAsGA1UEChMEdGVz
dDEOMAwGA1UECxMFYmxhY2sxCzAJBgNVBAMTAmNhggkAwEFrU+p0okgwEwYDVR0l
BAwwCgYIKwYBBQUHAwIwCwYDVR0PBAQDAgeAMA0GCSqGSIb3DQEBCwUAA4IBAQA3
Lg2L5AyNoYnrpmkSbVC+Y0OkUzKsJ35qo9BOlfvzifr9FPpxVHDjCLWrTo9k7lt0
UHYuiP5d4vQcEzvf7x8NE6txvd+Gw9eZE29kjtxsHH7nkJ+4+iBjVAdtjXUKRCei
uyzCqBJIW9EXxO8UZKfMWCyCCpUTFOdWsUXx2GaboLRR1Y6Dh6VzyVu7zTElua9L
akAroCXSOZBdCqob33QlI+lV61fOBg8Ce4v6FH3MjlYTm69C2KYMJ82JnYaOyMgn
9hYHLxyKgjx/EnpN5KMvplYD0IEsVKLVKAjD1AKRMFQnwFW//J7bOhsuVteb0Epn
JrtxIyXFCtX/0JaFAvcP
-----END CERTIFICATE-----
