Certificate:
    Data:
        Version: 3 (0x2)
        Serial Number: 5 (0x5)
        Signature Algorithm: sha256WithRSAEncryption
        Issuer: O=advancedfiltering, OU=hosts, CN=Advanced Filtering CA
        Validity
            Not Before: Apr 14 12:31:09 2013 GMT
            Not After : Apr 12 12:31:09 2023 GMT
        Subject: O=advancedfiltering, OU=hosts, CN=test-crl
        Subject Public Key Info:
            Public Key Algorithm: rsaEncryption
            RSA Public Key: (2048 bit)
                Modulus (2048 bit):
                    00:ab:a9:76:05:c9:b0:b9:de:43:6f:e6:d4:ac:a5:
                    39:9c:d8:a2:0b:f1:6b:1a:e5:44:a9:43:55:db:73:
                    e1:dc:8c:4e:8d:f3:14:6b:01:ca:62:a9:5d:1f:45:
                    fe:ac:7a:5c:4f:3a:98:11:c5:41:c1:ac:d3:ac:af:
                    bb:d1:b2:c4:be:b2:72:99:b8:90:7b:04:e0:4a:78:
                    64:3d:81:d4:d5:09:65:a2:ee:42:c1:6c:60:50:6d:
                    3e:f1:dd:67:ae:13:f0:2c:8f:c4:fe:e6:78:3d:1e:
                    d3:59:a5:cc:36:cb:64:36:ed:5a:1f:44:2f:a6:07:
                    29:f9:2e:b2:d1:2a:13:98:2a:f7:ed:dd:5b:cd:7a:
                    69:ac:52:3a:9c:46:c9:1e:86:21:dc:fc:58:79:93:
                    c1:f8:2b:d1:0f:ec:a0:76:39:fa:f3:33:f6:c5:e5:
                    be:9d:67:75:b3:75:6c:09:37:02:ca:53:0d:26:62:
                    32:1d:1a:f1:76:3f:34:bf:61:44:4c:2a:53:bd:33:
                    aa:5e:70:5e:69:1c:21:f1:df:a8:64:42:26:85:0b:
                    0b:ee:e8:a0:9d:9d:2a:c7:95:48:20:74:ba:f2:ec:
                    c0:36:28:00:63:a9:34:89:f0:ea:96:92:83:e0:7b:
                    a4:fc:e5:b5:10:c9:d8:a0:e7:77:97:4f:a7:30:6d:
                    e9:ff
                Exponent: 65537 (0x10001)
        X509v3 extensions:
            X509v3 Basic Constraints: 
                CA:FALSE
            Netscape Comment: 
                Easy-RSA Generated Certificate
            X509v3 Subject Key Identifier: 
                BE:8A:90:F2:27:96:69:CB:42:63:81:77:36:AA:FF:46:85:9C:25:6D
            X509v3 Authority Key Identifier: 
                keyid:C6:7C:3F:DA:E9:AC:6B:2F:A3:8F:26:03:15:0B:DC:65:08:51:98:9D
                DirName:/O=advancedfiltering/OU=hosts/CN=Advanced Filtering CA
                serial:8C:32:88:59:79:7B:3C:CC

            X509v3 Extended Key Usage: 
                TLS Web Client Authentication
            X509v3 Key Usage: 
                Digital Signature
    Signature Algorithm: sha256WithRSAEncryption
        7d:74:aa:b1:5d:2c:3b:58:69:25:fb:f4:f4:dd:a3:39:ac:16:
        cb:77:5d:be:ab:3d:95:c4:5b:b2:eb:5b:40:40:84:9b:73:7b:
        40:61:f6:cd:f5:cb:ed:11:19:3a:72:47:e0:a1:10:c4:cc:ef:
        d6:ea:1e:d6:19:75:4b:69:67:d2:22:41:8d:99:5a:ca:7c:ca:
        6d:1c:47:85:8e:40:28:e0:31:51:55:fd:b2:ed:40:8b:c0:70:
        15:5d:99:57:a0:93:b5:46:92:ac:f9:f2:50:ed:3f:59:f4:b8:
        d4:06:23:b2:d1:db:c3:27:e9:5a:a2:1c:ff:7b:86:f0:7d:f9:
        d6:45:03:d8:13:40:37:fc:93:54:1b:36:ec:84:38:aa:c2:4a:
        a8:cc:bf:d8:40:7e:4a:08:3a:78:85:79:18:00:8c:df:85:1b:
        ba:be:e4:a9:56:c1:7d:d8:00:aa:37:b5:b7:fd:1e:86:1f:59:
        d2:c7:b6:88:ae:24:1f:91:ef:6a:29:a4:58:b9:63:ed:78:8b:
        13:e7:cd:d6:33:d6:e1:f2:ec:c9:00:91:19:ee:30:42:da:da:
        17:73:51:0f:01:5f:0a:17:2d:ea:d0:7b:98:67:b9:00:95:45:
        c1:8f:e5:8a:de:6c:d4:39:fa:85:79:57:3c:41:b0:44:68:09:
        aa:35:99:94
-----BEGIN CERTIFICATE-----
MIIEAzCCAuugAwIBAgIBBTANBgkqhkiG9w0BAQsFADBMMRowGAYDVQQKExFhZHZh
bmNlZGZpbHRlcmluZzEOMAwGA1UECxMFaG9zdHMxHjAcBgNVBAMTFUFkdmFuY2Vk
IEZpbHRlcmluZyBDQTAeFw0xMzA0MTQxMjMxMDlaFw0yMzA0MTIxMjMxMDlaMD8x
GjAYBgNVBAoTEWFkdmFuY2VkZmlsdGVyaW5nMQ4wDAYDVQQLEwVob3N0czERMA8G
A1UEAxMIdGVzdC1jcmwwggEiMA0GCSqGSIb3DQEBAQUAA4IBDwAwggEKAoIBAQCr
qXYFybC53kNv5tSspTmc2KIL8Wsa5USpQ1Xbc+HcjE6N8xRrAcpiqV0fRf6selxP
OpgRxUHBrNOsr7vRssS+snKZuJB7BOBKeGQ9gdTVCWWi7kLBbGBQbT7x3WeuE/As
j8T+5ng9HtNZpcw2y2Q27VofRC+mByn5LrLRKhOYKvft3VvNemmsUjqcRskehiHc
/Fh5k8H4K9EP7KB2OfrzM/bF5b6dZ3WzdWwJNwLKUw0mYjIdGvF2PzS/YURMKlO9
M6pecF5pHCHx36hkQiaFCwvu6KCdnSrHlUggdLry7MA2KABjqTSJ8OqWkoPge6T8
5bUQydig53eXT6cwben/AgMBAAGjgfwwgfkwCQYDVR0TBAIwADAtBglghkgBhvhC
AQ0EIBYeRWFzeS1SU0EgR2VuZXJhdGVkIENlcnRpZmljYXRlMB0GA1UdDgQWBBS+
ipDyJ5Zpy0JjgXc2qv9GhZwlbTB8BgNVHSMEdTBzgBTGfD/a6axrL6OPJgMVC9xl
CFGYnaFQpE4wTDEaMBgGA1UEChMRYWR2YW5jZWRmaWx0ZXJpbmcxDjAMBgNVBAsT
BWhvc3RzMR4wHAYDVQQDExVBZHZhbmNlZCBGaWx0ZXJpbmcgQ0GCCQCMMohZeXs8
zDATBgNVHSUEDDAKBggrBgEFBQcDAjALBgNVHQ8EBAMCB4AwDQYJKoZIhvcNAQEL
BQADggEBAH10qrFdLDtYaSX79PTdozmsFst3Xb6rPZXEW7LrW0BAhJtze0Bh9s31
y+0RGTpyR+ChEMTM79bqHtYZdUtpZ9IiQY2ZWsp8ym0cR4WOQCjgMVFV/bLtQIvA
cBVdmVegk7VGkqz58lDtP1n0uNQGI7LR28Mn6VqiHP97hvB9+dZFA9gTQDf8k1Qb
NuyEOKrCSqjMv9hAfkoIOniFeRgAjN+FG7q+5KlWwX3YAKo3tbf9HoYfWdLHtoiu
JB+R72oppFi5Y+14ixPnzdYz1uHy7MkAkRnuMELa2hdzUQ8BXwoXLerQe5hnuQCV
RcGP5YrebNQ5+oV5VzxBsERoCao1mZQ=
-----END CERTIFICATE-----
