Certificate:
    Data:
        Version: 3 (0x2)
        Serial Number: 1 (0x1)
        Signature Algorithm: sha256WithRSAEncryption
        Issuer: O=advancedfiltering, OU=hosts, CN=advancedfiltering CA
        Validity
            Not Before: Jul 22 19:48:25 2013 GMT
            Not After : Jul 20 19:48:25 2023 GMT
        Subject: O=advancedfiltering, OU=hosts, CN=test-other-ca
        Subject Public Key Info:
            Public Key Algorithm: rsaEncryption
            RSA Public Key: (2048 bit)
                Modulus (2048 bit):
                    00:b7:eb:f5:46:ee:60:45:9c:cb:37:07:ee:94:e5:
                    85:fd:df:4e:68:9f:56:83:6e:25:3c:75:aa:43:ba:
                    8f:8d:96:9d:3f:36:fa:1c:4c:f4:be:2a:fc:0a:0b:
                    2b:ad:e7:44:af:7f:a8:c7:3a:3b:21:05:44:2a:69:
                    c5:60:8b:e9:27:9b:ad:d6:3a:52:07:cd:4f:81:18:
                    53:9e:48:99:07:9c:64:f3:b1:96:78:0e:cf:22:47:
                    25:ef:d5:af:ab:9e:83:b1:94:4f:08:e8:e8:dc:1b:
                    12:b3:73:e9:5c:e6:c9:df:86:08:66:2e:e5:59:c3:
                    f0:e2:6b:b3:45:75:ca:3b:d8:53:c4:ed:73:81:c7:
                    22:b7:3c:b1:dd:84:45:60:16:1d:fc:6d:e6:e1:44:
                    6b:0f:fd:3f:9e:8b:a0:fd:0e:48:74:7f:17:1c:e9:
                    0d:36:ca:bf:55:1d:43:48:96:c4:1a:08:d7:d7:2d:
                    73:5b:42:98:3c:64:02:94:60:7d:6b:2f:0a:a5:85:
                    74:07:29:89:31:32:e3:c3:71:de:66:1a:37:a0:de:
                    f2:b9:8c:49:96:0f:33:c1:80:61:be:81:06:63:31:
                    b5:65:5c:ee:bd:75:dd:5c:3a:b4:82:f1:56:b3:7a:
                    aa:88:0c:4f:fd:2b:49:a8:b7:bc:ad:40:f4:e9:97:
                    2d:15
                Exponent: 65537 (0x10001)
        X509v3 extensions:
            X509v3 Basic Constraints: 
                CA:FALSE
            X509v3 Subject Key Identifier: 
                8C:BA:CD:F5:5B:69:F4:FE:A8:C5:0B:97:E2:8C:93:BF:BC:AE:71:0E
            X509v3 Authority Key Identifier: 
                keyid:C7:A8:96:CB:0D:FD:1F:6F:88:94:02:F5:35:6E:5A:FC:01:12:D8:9C
                DirName:/O=advancedfiltering/OU=hosts/CN=advancedfiltering CA
                serial:F4:B5:BE:78:30:B2:72:B1

            X509v3 Extended Key Usage: 
                TLS Web Server Authentication, TLS Web Client Authentication
            X509v3 Key Usage: 
                Digital Signature, Key Encipherment
            X509v3 CRL Distribution Points: 
                URI:http://deploy.hosts.advancedfiltering.net/public/ca-advancedfiltering.crl

            Authority Information Access: 
                CA Issuers - URI:http://deploy.hosts.advancedfiltering.net/public/ca-advancedfiltering.crt

    Signature Algorithm: sha256WithRSAEncryption
        82:da:a4:77:da:e8:ba:14:cc:23:11:43:1f:90:6a:87:8f:53:
        36:f6:b3:11:39:f5:a7:62:a5:10:cc:65:e8:f9:79:31:27:1a:
        a9:1f:4d:df:0a:27:e1:86:04:86:6c:b0:96:16:0e:60:d7:cb:
        5e:b5:21:00:eb:33:6e:6e:60:4c:d6:b6:07:09:c2:dd:9c:d7:
        25:26:39:29:31:81:9f:c2:32:1b:9b:ef:75:7d:03:97:2d:29:
        7c:7e:81:dc:26:03:23:77:01:1b:eb:10:50:60:b8:de:0a:b0:
        3e:41:95:ad:89:a4:b1:bf:b9:90:e8:d4:ad:62:ff:16:3c:08:
        6a:b8:db:59:c6:47:bf:5d:25:79:13:fd:ad:93:41:2f:9a:55:
        4d:33:e1:5a:8a:ca:44:f9:01:1d:fc:70:10:c3:b6:cf:34:34:
        cc:2a:32:9b:6c:f1:ef:03:c4:a8:e5:c8:1e:14:17:81:d1:a3:
        42:74:7c:95:54:6f:84:45:aa:49:6f:5e:fe:ef:9b:18:dc:15:
        c5:c5:06:2e:e7:80:e8:ce:e8:6b:ae:58:31:bf:11:74:ae:24:
        88:7c:49:4c:3d:d0:d1:78:a6:9a:d9:5f:9b:e7:c7:e9:6a:68:
        4b:af:42:01:ea:dd:a9:92:a7:cb:d3:36:4d:d3:c3:c3:4f:23:
        19:45:50:2d
-----BEGIN CERTIFICATE-----
MIIEpjCCA46gAwIBAgIBATANBgkqhkiG9w0BAQsFADBLMRowGAYDVQQKExFhZHZh
bmNlZGZpbHRlcmluZzEOMAwGA1UECxMFaG9zdHMxHTAbBgNVBAMTFGFkdmFuY2Vk
ZmlsdGVyaW5nIENBMB4XDTEzMDcyMjE5NDgyNVoXDTIzMDcyMDE5NDgyNVowRDEa
MBgGA1UEChMRYWR2YW5jZWRmaWx0ZXJpbmcxDjAMBgNVBAsTBWhvc3RzMRYwFAYD
VQQDEw10ZXN0LW90aGVyLWNhMIIBIjANBgkqhkiG9w0BAQEFAAOCAQ8AMIIBCgKC
AQEAt+v1Ru5gRZzLNwfulOWF/d9OaJ9Wg24lPHWqQ7qPjZadPzb6HEz0vir8Cgsr
redEr3+oxzo7IQVEKmnFYIvpJ5ut1jpSB81PgRhTnkiZB5xk87GWeA7PIkcl79Wv
q56DsZRPCOjo3BsSs3PpXObJ34YIZi7lWcPw4muzRXXKO9hTxO1zgccitzyx3YRF
YBYd/G3m4URrD/0/noug/Q5IdH8XHOkNNsq/VR1DSJbEGgjX1y1zW0KYPGQClGB9
ay8KpYV0BymJMTLjw3HeZho3oN7yuYxJlg8zwYBhvoEGYzG1ZVzuvXXdXDq0gvFW
s3qqiAxP/StJqLe8rUD06ZctFQIDAQABo4IBmjCCAZYwCQYDVR0TBAIwADAdBgNV
HQ4EFgQUjLrN9Vtp9P6oxQuX4oyTv7yucQ4wewYDVR0jBHQwcoAUx6iWyw39H2+I
lAL1NW5a/AES2JyhT6RNMEsxGjAYBgNVBAoTEWFkdmFuY2VkZmlsdGVyaW5nMQ4w
DAYDVQQLEwVob3N0czEdMBsGA1UEAxMUYWR2YW5jZWRmaWx0ZXJpbmcgQ0GCCQD0
tb54MLJysTAdBgNVHSUEFjAUBggrBgEFBQcDAQYIKwYBBQUHAwIwCwYDVR0PBAQD
AgWgMFoGA1UdHwRTMFEwT6BNoEuGSWh0dHA6Ly9kZXBsb3kuaG9zdHMuYWR2YW5j
ZWRmaWx0ZXJpbmcubmV0L3B1YmxpYy9jYS1hZHZhbmNlZGZpbHRlcmluZy5jcmww
ZQYIKwYBBQUHAQEEWTBXMFUGCCsGAQUFBzAChklodHRwOi8vZGVwbG95Lmhvc3Rz
LmFkdmFuY2VkZmlsdGVyaW5nLm5ldC9wdWJsaWMvY2EtYWR2YW5jZWRmaWx0ZXJp
bmcuY3J0MA0GCSqGSIb3DQEBCwUAA4IBAQCC2qR32ui6FMwjEUMfkGqHj1M29rMR
OfWnYqUQzGXo+XkxJxqpH03fCifhhgSGbLCWFg5g18tetSEA6zNubmBM1rYHCcLd
nNclJjkpMYGfwjIbm+91fQOXLSl8foHcJgMjdwEb6xBQYLjeCrA+QZWtiaSxv7mQ
6NStYv8WPAhquNtZxke/XSV5E/2tk0EvmlVNM+FaispE+QEd/HAQw7bPNDTMKjKb
bPHvA8So5cgeFBeB0aNCdHyVVG+ERapJb17+75sY3BXFxQYu54DozuhrrlgxvxF0
riSIfElMPdDReKaa2V+b58fpamhLr0IB6t2pkqfL0zZN08PDTyMZRVAt
-----END CERTIFICATE-----
