Certificate:
    Data:
        Version: 3 (0x2)
        Serial Number: 10918147996022457430 (0x97850dc16c0fc456)
    Signature Algorithm: sha256WithRSAEncryption
        Issuer: O=advancedfiltering, OU=tests, CN=advancedfiltering test CA
        Validity
            Not Before: Nov 19 15:26:04 2014 GMT
            Not After : Nov 16 15:26:04 2024 GMT
        Subject: O=advancedfiltering, OU=tests, CN=advancedfiltering test CA
        Subject Public Key Info:
            Public Key Algorithm: rsaEncryption
                Public-Key: (2048 bit)
                Modulus:
                    00:ae:f7:e2:a8:e3:fa:bf:ba:95:46:f3:46:1d:b8:
                    de:87:1d:eb:82:6b:03:e4:41:d1:03:87:54:b4:30:
                    c1:b2:44:79:ae:90:2d:20:ba:26:cb:a9:94:0f:47:
                    a9:20:2c:c0:b0:d8:bc:ad:6b:ca:39:1d:fe:ad:ac:
                    cd:4b:d4:86:64:e8:0d:19:3f:87:8f:2b:19:3d:b5:
                    33:a6:b6:67:3a:94:95:50:6e:5a:13:f7:e7:9a:dc:
                    e1:02:33:8a:1c:73:25:c9:e5:50:45:9d:d2:15:b4:
                    89:65:5e:94:62:8c:3b:a5:e0:7b:7c:52:72:57:47:
                    f1:2b:b6:82:49:1e:53:49:ba:ab:54:08:d3:8f:46:
                    7e:8c:8c:55:38:ef:f8:8b:9f:20:d1:f7:24:0c:9d:
                    cb:85:9a:20:8c:f3:bc:83:a4:8c:f6:20:55:bd:5e:
                    8e:da:a9:54:50:27:05:b1:78:6b:d1:4f:c4:78:f8:
                    40:be:de:51:e0:a8:47:cd:5d:df:56:cf:c7:0d:43:
                    3c:ef:75:8e:8d:64:ca:6a:13:ca:ab:9a:ea:61:18:
                    3a:84:15:76:66:82:1b:c3:43:c4:25:0c:b2:c9:bb:
                    90:bb:17:11:6f:55:0f:60:99:8c:69:1b:5a:26:44:
                    ad:86:42:64:e9:73:9b:1b:8b:67:46:c2:a2:8d:0d:
                    1b:2b
                Exponent: 65537 (0x10001)
        X509v3 extensions:
            X509v3 Subject Key Identifier: 
                94:C5:DF:37:7B:11:51:64:52:E8:02:4A:95:38:3F:8B:59:3F:68:0B
            X509v3 Authority Key Identifier: 
                keyid:94:C5:DF:37:7B:11:51:64:52:E8:02:4A:95:38:3F:8B:59:3F:68:0B
                DirName:/O=advancedfiltering/OU=tests/CN=advancedfiltering test CA
                serial:97:85:0D:C1:6C:0F:C4:56

            X509v3 Basic Constraints: 
                CA:TRUE
    Signature Algorithm: sha256WithRSAEncryption
         ad:94:00:a6:93:b1:84:c2:f1:4e:ae:8b:48:ed:57:b9:4e:2c:
         9d:17:b3:3e:11:2d:94:cc:45:31:84:41:14:d5:26:25:33:8d:
         bf:16:b6:1a:ea:a6:24:ad:7b:4b:1b:26:90:50:92:81:af:ce:
         5a:f3:12:16:db:92:90:c1:8a:0d:7a:47:27:e2:73:2b:51:34:
         7a:1b:f0:cd:72:ae:9d:8f:85:c9:92:b1:d6:b4:98:f3:02:90:
         5f:40:58:c1:f3:d4:b9:30:c3:37:a8:66:42:92:29:a1:53:a3:
         15:ec:cf:fe:59:02:30:b4:61:53:d9:08:ee:45:91:82:48:23:
         fa:96:90:c5:74:10:6c:71:a8:d1:a0:3b:05:74:6b:12:08:1a:
         d4:0c:1f:fa:7c:c1:ed:40:a1:8e:16:9c:6c:e1:f0:4a:59:0c:
         1f:05:33:12:dc:cc:5c:85:42:9a:bd:00:10:25:74:9a:30:9e:
         27:53:76:16:66:80:a3:2c:70:78:25:08:33:ad:aa:dd:6d:66:
         a2:7e:0c:61:54:41:65:1a:5e:0a:db:d5:b6:1a:d8:4b:17:fb:
         44:ef:26:0d:5b:13:7b:b7:20:49:9f:e2:6a:5f:6a:b5:46:cf:
         5a:f9:e0:64:c5:3b:b5:a4:a4:92:fc:a5:b9:a9:30:ec:f4:f7:
         f2:24:8d:e3
-----BEGIN CERTIFICATE-----
MIID1zCCAr+gAwIBAgIJAJeFDcFsD8RWMA0GCSqGSIb3DQEBCwUAMFAxGjAYBgNV
BAoTEWFkdmFuY2VkZmlsdGVyaW5nMQ4wDAYDVQQLEwV0ZXN0czEiMCAGA1UEAxMZ
YWR2YW5jZWRmaWx0ZXJpbmcgdGVzdCBDQTAeFw0xNDExMTkxNTI2MDRaFw0yNDEx
MTYxNTI2MDRaMFAxGjAYBgNVBAoTEWFkdmFuY2VkZmlsdGVyaW5nMQ4wDAYDVQQL
EwV0ZXN0czEiMCAGA1UEAxMZYWR2YW5jZWRmaWx0ZXJpbmcgdGVzdCBDQTCCASIw
DQYJKoZIhvcNAQEBBQADggEPADCCAQoCggEBAK734qjj+r+6lUbzRh243ocd64Jr
A+RB0QOHVLQwwbJEea6QLSC6JsuplA9HqSAswLDYvK1ryjkd/q2szUvUhmToDRk/
h48rGT21M6a2ZzqUlVBuWhP355rc4QIzihxzJcnlUEWd0hW0iWVelGKMO6Xge3xS
cldH8Su2gkkeU0m6q1QI049GfoyMVTjv+IufINH3JAydy4WaIIzzvIOkjPYgVb1e
jtqpVFAnBbF4a9FPxHj4QL7eUeCoR81d31bPxw1DPO91jo1kymoTyqua6mEYOoQV
dmaCG8NDxCUMssm7kLsXEW9VD2CZjGkbWiZErYZCZOlzmxuLZ0bCoo0NGysCAwEA
AaOBszCBsDAdBgNVHQ4EFgQUlMXfN3sRUWRS6AJKlTg/i1k/aAswgYAGA1UdIwR5
MHeAFJTF3zd7EVFkUugCSpU4P4tZP2gLoVSkUjBQMRowGAYDVQQKExFhZHZhbmNl
ZGZpbHRlcmluZzEOMAwGA1UECxMFdGVzdHMxIjAgBgNVBAMTGWFkdmFuY2VkZmls
dGVyaW5nIHRlc3QgQ0GCCQCXhQ3BbA/EVjAMBgNVHRMEBTADAQH/MA0GCSqGSIb3
DQEBCwUAA4IBAQCtlACmk7GEwvFOrotI7Ve5TiydF7M+ES2UzEUxhEEU1SYlM42/
FrYa6qYkrXtLGyaQUJKBr85a8xIW25KQwYoNekcn4nMrUTR6G/DNcq6dj4XJkrHW
tJjzApBfQFjB89S5MMM3qGZCkimhU6MV7M/+WQIwtGFT2QjuRZGCSCP6lpDFdBBs
cajRoDsFdGsSCBrUDB/6fMHtQKGOFpxs4fBKWQwfBTMS3MxchUKavQAQJXSaMJ4n
U3YWZoCjLHB4JQgzrardbWaifgxhVEFlGl4K29W2GthLF/tE7yYNWxN7tyBJn+Jq
X2q1Rs9a+eBkxTu1pKSS/KW5qTDs9PfyJI3j
-----END CERTIFICATE-----
