Certificate:
    Data:
        Version: 3 (0x2)
        Serial Number: 4 (0x4)
        Signature Algorithm: sha256WithRSAEncryption
        Issuer: O=advancedfiltering, OU=hosts, CN=Advanced Filtering CA
        Validity
            Not Before: Apr 14 12:12:18 2013 GMT
            Not After : Apr 12 12:12:18 2023 GMT
        Subject: O=advancedfiltering, OU=hosts, CN=test-cli
        Subject Public Key Info:
            Public Key Algorithm: rsaEncryption
            RSA Public Key: (2048 bit)
                Modulus (2048 bit):
                    00:db:19:42:e4:69:21:71:56:1b:73:4b:fe:42:31:
                    5b:1f:14:7b:bc:a8:4a:22:94:67:30:ef:a7:b0:38:
                    f6:8b:48:82:9f:d3:4c:fd:54:a2:b4:9e:01:6b:5f:
                    86:23:4e:e6:03:c5:09:4e:e0:83:bf:a8:e1:fc:fd:
                    3a:34:1c:33:6a:66:68:7f:34:40:ce:e9:0c:d9:72:
                    f6:cf:45:f0:88:a8:ae:fe:8a:8d:01:0a:6b:b6:1e:
                    fc:9c:41:b1:f5:60:d1:a3:97:f2:17:df:06:a7:60:
                    87:1e:ec:ff:f6:05:bb:5c:ed:4a:fd:3d:f2:20:da:
                    f1:91:70:e4:ea:4e:a3:5d:3e:64:82:f1:5b:41:1f:
                    63:20:51:d1:ab:e1:33:eb:d9:bc:8b:4e:b2:e7:16:
                    f6:c8:58:cb:bd:b2:a3:30:ac:e4:10:91:78:3d:b8:
                    88:3d:38:6a:21:dd:fd:aa:b1:6c:da:5a:5e:63:f7:
                    ec:be:ad:88:89:b7:77:6f:54:2c:39:29:c4:ba:be:
                    cc:26:95:bd:8f:44:f4:69:54:f7:6c:0d:34:0a:c7:
                    2a:3d:6a:e6:87:46:22:41:ba:2b:1b:60:81:83:33:
                    ea:ad:e3:ed:5a:8b:3c:82:90:9b:81:59:db:5c:18:
                    e2:7f:58:ec:92:7b:20:4e:bd:07:6e:44:3e:65:b2:
                    6b:49
                Exponent: 65537 (0x10001)
        X509v3 extensions:
            X509v3 Basic Constraints: 
                CA:FALSE
            Netscape Comment: 
                Easy-RSA Generated Certificate
            X509v3 Subject Key Identifier: 
                88:00:A8:92:A2:75:7A:6F:91:2B:6C:E3:9C:75:30:4B:BC:63:5D:F2
            X509v3 Authority Key Identifier: 
                keyid:C6:7C:3F:DA:E9:AC:6B:2F:A3:8F:26:03:15:0B:DC:65:08:51:98:9D
                DirName:/O=advancedfiltering/OU=hosts/CN=Advanced Filtering CA
                serial:8C:32:88:59:79:7B:3C:CC

            X509v3 Extended Key Usage: 
                TLS Web Client Authentication
            X509v3 Key Usage: 
                Digital Signature
    Signature Algorithm: sha256WithRSAEncryption
        06:45:4b:ed:d6:c5:45:cb:f1:0f:f9:5a:fc:0c:a6:d0:ec:62:
        2f:cf:39:2b:77:49:34:03:ba:0b:78:bc:0a:97:0c:1d:a6:f7:
        b2:3b:91:8c:87:56:c4:30:8e:0f:a9:f2:51:a4:3c:b2:e5:4a:
        0e:7a:32:7b:92:15:4a:dd:26:55:a4:09:2b:2d:fd:61:ee:0d:
        c3:94:98:0e:4f:5e:6d:e8:5a:ac:5c:31:0e:89:5b:a7:48:3e:
        6c:cc:04:ee:a7:1f:08:2a:db:ae:1c:80:1c:47:1e:c1:80:55:
        6b:a9:79:52:9b:a6:9d:a7:3c:b3:cc:e1:7f:ff:36:e9:a2:e2:
        1d:96:f1:1e:0c:68:5d:cd:a9:4e:b6:32:d0:f5:61:42:36:a8:
        f1:a4:d3:73:2e:36:73:11:5b:3c:3f:76:4e:6c:88:c6:04:5d:
        58:da:38:c5:72:e8:6f:9b:73:39:90:a0:d7:c4:ba:89:64:1c:
        6a:81:0a:f9:b5:33:dc:d4:38:f5:a5:7e:b5:83:53:af:6f:2e:
        7a:c1:1b:1d:17:ed:8a:d4:6e:fe:bb:7b:fe:6e:7c:a1:95:ae:
        73:09:39:97:d9:a4:b3:fa:71:c4:f5:f2:dc:f8:59:16:06:35:
        33:eb:f1:9b:62:ee:f8:8c:ca:22:a1:46:87:4f:25:4a:3b:99:
        00:62:8f:74
-----BEGIN CERTIFICATE-----
MIIEAzCCAuugAwIBAgIBBDANBgkqhkiG9w0BAQsFADBMMRowGAYDVQQKExFhZHZh
bmNlZGZpbHRlcmluZzEOMAwGA1UECxMFaG9zdHMxHjAcBgNVBAMTFUFkdmFuY2Vk
IEZpbHRlcmluZyBDQTAeFw0xMzA0MTQxMjEyMThaFw0yMzA0MTIxMjEyMThaMD8x
GjAYBgNVBAoTEWFkdmFuY2VkZmlsdGVyaW5nMQ4wDAYDVQQLEwVob3N0czERMA8G
A1UEAxMIdGVzdC1jbGkwggEiMA0GCSqGSIb3DQEBAQUAA4IBDwAwggEKAoIBAQDb
GULkaSFxVhtzS/5CMVsfFHu8qEoilGcw76ewOPaLSIKf00z9VKK0ngFrX4YjTuYD
xQlO4IO/qOH8/To0HDNqZmh/NEDO6QzZcvbPRfCIqK7+io0BCmu2HvycQbH1YNGj
l/IX3wanYIce7P/2Bbtc7Ur9PfIg2vGRcOTqTqNdPmSC8VtBH2MgUdGr4TPr2byL
TrLnFvbIWMu9sqMwrOQQkXg9uIg9OGoh3f2qsWzaWl5j9+y+rYiJt3dvVCw5KcS6
vswmlb2PRPRpVPdsDTQKxyo9auaHRiJBuisbYIGDM+qt4+1aizyCkJuBWdtcGOJ/
WOySeyBOvQduRD5lsmtJAgMBAAGjgfwwgfkwCQYDVR0TBAIwADAtBglghkgBhvhC
AQ0EIBYeRWFzeS1SU0EgR2VuZXJhdGVkIENlcnRpZmljYXRlMB0GA1UdDgQWBBSI
AKiSonV6b5ErbOOcdTBLvGNd8jB8BgNVHSMEdTBzgBTGfD/a6axrL6OPJgMVC9xl
CFGYnaFQpE4wTDEaMBgGA1UEChMRYWR2YW5jZWRmaWx0ZXJpbmcxDjAMBgNVBAsT
BWhvc3RzMR4wHAYDVQQDExVBZHZhbmNlZCBGaWx0ZXJpbmcgQ0GCCQCMMohZeXs8
zDATBgNVHSUEDDAKBggrBgEFBQcDAjALBgNVHQ8EBAMCB4AwDQYJKoZIhvcNAQEL
BQADggEBAAZFS+3WxUXL8Q/5WvwMptDsYi/POSt3STQDugt4vAqXDB2m97I7kYyH
VsQwjg+p8lGkPLLlSg56MnuSFUrdJlWkCSst/WHuDcOUmA5PXm3oWqxcMQ6JW6dI
PmzMBO6nHwgq264cgBxHHsGAVWupeVKbpp2nPLPM4X//Numi4h2W8R4MaF3NqU62
MtD1YUI2qPGk03MuNnMRWzw/dk5siMYEXVjaOMVy6G+bczmQoNfEuolkHGqBCvm1
M9zUOPWlfrWDU69vLnrBGx0X7YrUbv67e/5ufKGVrnMJOZfZpLP6ccT18tz4WRYG
NTPr8Zti7viMyiKhRodPJUo7mQBij3Q=
-----END CERTIFICATE-----
