Certificate:
    Data:
        Version: 3 (0x2)
        Serial Number: 4 (0x4)
    Signature Algorithm: sha256WithRSAEncryption
        Issuer: O=advancedfiltering, OU=tests, CN=advancedfiltering test CA
        Validity
            Not Before: Jan 27 08:24:37 2015 GMT
            Not After : Jan 24 08:24:37 2025 GMT
        Subject: O=advancedfiltering, OU=tests, CN=logexec
        Subject Public Key Info:
            Public Key Algorithm: rsaEncryption
                Public-Key: (2048 bit)
                Modulus:
                    00:be:e0:6a:e8:ad:ae:21:c2:37:0a:d2:33:23:9f:
                    20:7a:c1:8d:99:0c:21:ad:c6:66:c6:81:35:b2:89:
                    dc:c2:1d:c9:15:64:c3:ec:c7:a1:7a:2e:99:0f:85:
                    a4:2e:3c:ac:ad:c2:3b:48:db:ae:84:2a:e3:8b:ea:
                    90:55:60:1e:b5:74:57:2f:e0:ef:cf:cc:99:15:10:
                    cd:52:f3:9e:9f:0a:92:bd:a9:41:4c:65:9c:36:72:
                    8a:b7:3f:96:30:3a:8a:da:5e:c2:47:bf:d1:73:6d:
                    ee:b1:60:fd:a5:a7:a0:1d:e4:98:92:6d:45:f2:70:
                    36:5b:bd:01:0d:57:a2:5c:84:dc:95:0b:93:6f:36:
                    14:01:87:c7:c4:81:eb:b3:d1:f4:ca:bc:e6:ee:fb:
                    f6:4b:49:ed:a5:b6:fb:b1:d4:11:16:07:8b:56:e4:
                    40:5d:7c:2e:63:43:eb:cd:e0:75:10:fe:d7:51:2c:
                    98:2e:b9:7c:a7:75:72:fe:42:ef:9f:0a:b1:af:a7:
                    37:75:fe:ab:69:94:e8:04:46:04:3e:95:11:44:87:
                    28:18:ac:9c:d8:65:65:f2:2f:b0:0b:7f:c2:ab:ee:
                    a7:4a:66:3d:86:ab:b6:c3:4b:2f:9f:07:a5:25:05:
                    c5:3c:08:31:c9:a6:f0:b2:0d:89:81:b3:0e:5c:47:
                    55:d1
                Exponent: 65537 (0x10001)
        X509v3 extensions:
            X509v3 Basic Constraints: 
                CA:FALSE
            X509v3 Subject Key Identifier: 
                3E:4B:28:5A:1E:F2:CC:24:1E:F0:6B:98:3B:AA:62:41:98:2A:E5:D3
            X509v3 Authority Key Identifier: 
                keyid:94:C5:DF:37:7B:11:51:64:52:E8:02:4A:95:38:3F:8B:59:3F:68:0B
                DirName:/O=advancedfiltering/OU=tests/CN=advancedfiltering test CA
                serial:97:85:0D:C1:6C:0F:C4:56

            X509v3 Extended Key Usage: 
                TLS Web Client Authentication
            X509v3 Key Usage: 
                Digital Signature
    Signature Algorithm: sha256WithRSAEncryption
         69:35:1d:6a:67:a0:df:f7:8b:6f:33:60:98:59:5e:dc:b3:39:
         fb:38:a1:1f:75:5a:0e:a0:a7:a6:bb:b1:67:8e:48:cc:d2:32:
         8e:73:4c:e1:c5:cb:c5:28:15:24:c4:8e:07:32:51:5e:a5:8c:
         9a:d3:59:85:12:b2:48:9a:bc:c7:19:99:d7:94:29:cc:a5:18:
         a2:69:7c:2e:97:90:26:0f:13:77:23:d4:a7:13:4f:a8:91:37:
         52:1e:16:24:3b:71:6c:3c:9d:c7:f8:9c:a8:3f:36:3d:9d:ed:
         b4:2a:c1:62:9e:d2:ea:8b:3a:d3:56:a0:b4:3b:4a:5c:88:2f:
         86:df:ec:67:2b:97:9c:2c:9e:4d:98:1a:d3:1f:8e:af:f3:4f:
         f8:57:30:23:61:f8:92:1f:e5:7f:f5:87:44:7c:19:f7:28:f5:
         01:90:e3:85:00:20:38:45:af:ff:a8:43:d3:2c:12:7c:03:6f:
         1f:ac:07:d6:5b:90:19:e3:98:2c:58:02:1c:da:67:6d:0a:d3:
         e5:ba:bf:a1:a1:0e:07:c0:d7:a5:00:d9:e1:cf:f2:94:b4:ea:
         40:84:01:00:94:b1:bd:5e:e6:94:2f:33:58:07:99:33:29:62:
         7e:c7:5c:ea:70:ee:c0:8d:17:f5:e1:ff:ab:74:7d:78:24:ad:
         02:35:0b:f9
-----BEGIN CERTIFICATE-----
MIID3DCCAsSgAwIBAgIBBDANBgkqhkiG9w0BAQsFADBQMRowGAYDVQQKExFhZHZh
bmNlZGZpbHRlcmluZzEOMAwGA1UECxMFdGVzdHMxIjAgBgNVBAMTGWFkdmFuY2Vk
ZmlsdGVyaW5nIHRlc3QgQ0EwHhcNMTUwMTI3MDgyNDM3WhcNMjUwMTI0MDgyNDM3
WjA+MRowGAYDVQQKExFhZHZhbmNlZGZpbHRlcmluZzEOMAwGA1UECxMFdGVzdHMx
EDAOBgNVBAMTB2xvZ2V4ZWMwggEiMA0GCSqGSIb3DQEBAQUAA4IBDwAwggEKAoIB
AQC+4Grora4hwjcK0jMjnyB6wY2ZDCGtxmbGgTWyidzCHckVZMPsx6F6LpkPhaQu
PKytwjtI266EKuOL6pBVYB61dFcv4O/PzJkVEM1S856fCpK9qUFMZZw2coq3P5Yw
OoraXsJHv9Fzbe6xYP2lp6Ad5JiSbUXycDZbvQENV6JchNyVC5NvNhQBh8fEgeuz
0fTKvObu+/ZLSe2ltvux1BEWB4tW5EBdfC5jQ+vN4HUQ/tdRLJguuXyndXL+Qu+f
CrGvpzd1/qtplOgERgQ+lRFEhygYrJzYZWXyL7ALf8Kr7qdKZj2Gq7bDSy+fB6Ul
BcU8CDHJpvCyDYmBsw5cR1XRAgMBAAGjgdIwgc8wCQYDVR0TBAIwADAdBgNVHQ4E
FgQUPksoWh7yzCQe8GuYO6piQZgq5dMwgYAGA1UdIwR5MHeAFJTF3zd7EVFkUugC
SpU4P4tZP2gLoVSkUjBQMRowGAYDVQQKExFhZHZhbmNlZGZpbHRlcmluZzEOMAwG
A1UECxMFdGVzdHMxIjAgBgNVBAMTGWFkdmFuY2VkZmlsdGVyaW5nIHRlc3QgQ0GC
CQCXhQ3BbA/EVjATBgNVHSUEDDAKBggrBgEFBQcDAjALBgNVHQ8EBAMCB4AwDQYJ
KoZIhvcNAQELBQADggEBAGk1HWpnoN/3i28zYJhZXtyzOfs4oR91Wg6gp6a7sWeO
SMzSMo5zTOHFy8UoFSTEjgcyUV6ljJrTWYUSskiavMcZmdeUKcylGKJpfC6XkCYP
E3cj1KcTT6iRN1IeFiQ7cWw8ncf4nKg/Nj2d7bQqwWKe0uqLOtNWoLQ7SlyIL4bf
7Gcrl5wsnk2YGtMfjq/zT/hXMCNh+JIf5X/1h0R8Gfco9QGQ44UAIDhFr/+oQ9Ms
EnwDbx+sB9ZbkBnjmCxYAhzaZ20K0+W6v6GhDgfA16UA2eHP8pS06kCEAQCUsb1e
5pQvM1gHmTMpYn7HXOpw7sCNF/Xh/6t0fXgkrQI1C/k=
-----END CERTIFICATE-----
