Certificate:
    Data:
        Version: 3 (0x2)
        Serial Number:
            8c:32:88:59:79:7b:3c:cc
        Signature Algorithm: sha256WithRSAEncryption
        Issuer: O=advancedfiltering, OU=hosts, CN=Advanced Filtering CA
        Validity
            Not Before: Apr 12 14:38:54 2013 GMT
            Not After : Apr 10 14:38:54 2023 GMT
        Subject: O=advancedfiltering, OU=hosts, CN=Advanced Filtering CA
        Subject Public Key Info:
            Public Key Algorithm: rsaEncryption
            RSA Public Key: (2048 bit)
                Modulus (2048 bit):
                    00:ce:a5:60:0a:97:e4:01:a0:d0:4a:01:44:61:7d:
                    d4:3a:9b:04:aa:60:5e:62:b1:37:ee:4f:4b:ac:97:
                    c8:30:f1:d7:d0:7d:12:8c:48:19:e0:d6:3c:5a:1f:
                    c1:a9:74:5e:bd:f4:30:d9:6a:05:47:90:35:b9:b5:
                    a5:4d:7c:e9:d6:16:9e:b4:6b:6b:7a:2a:31:e0:93:
                    a3:bc:1c:f7:b2:a9:8a:ad:f9:12:72:a9:e8:5a:d7:
                    d1:51:71:bd:76:8c:6d:9a:01:ae:32:d9:0b:48:a1:
                    49:89:19:50:ce:68:92:10:5a:8d:96:07:e6:9e:ae:
                    a7:1c:c6:2b:1d:33:1a:46:75:81:5d:e1:31:a6:d7:
                    e0:c4:b3:1a:03:91:a7:31:fa:e4:07:18:68:8b:dc:
                    98:a8:a1:45:bf:c0:7e:fe:d9:53:c2:83:a0:d5:b7:
                    36:d7:04:ff:ae:9e:a8:a4:bd:8a:dd:62:9c:fa:94:
                    b6:86:44:ec:a0:03:be:bc:7a:25:4d:63:bc:5f:e6:
                    87:64:ab:31:fc:48:c7:10:fb:4b:f3:7a:65:aa:be:
                    5e:59:28:88:6d:f6:a1:d4:96:ce:59:5e:50:fb:34:
                    a7:f4:10:bf:19:95:75:05:38:f6:4f:e7:64:4a:d2:
                    59:0b:a1:98:92:08:f2:0a:be:06:94:31:16:c4:58:
                    45:b5
                Exponent: 65537 (0x10001)
        X509v3 extensions:
            X509v3 Subject Key Identifier: 
                C6:7C:3F:DA:E9:AC:6B:2F:A3:8F:26:03:15:0B:DC:65:08:51:98:9D
            X509v3 Authority Key Identifier: 
                keyid:C6:7C:3F:DA:E9:AC:6B:2F:A3:8F:26:03:15:0B:DC:65:08:51:98:9D
                DirName:/O=advancedfiltering/OU=hosts/CN=Advanced Filtering CA
                serial:8C:32:88:59:79:7B:3C:CC

            X509v3 Basic Constraints: 
                CA:TRUE
    Signature Algorithm: sha256WithRSAEncryption
        72:8c:f7:fc:e9:85:61:97:23:c4:94:79:01:af:c3:65:17:b6:
        4f:94:ff:40:01:06:9b:43:59:6c:3b:67:7f:0e:0e:1d:a0:b4:
        1d:58:89:e8:26:c8:c9:40:83:f0:89:d5:4b:cf:b7:a8:ab:82:
        71:be:f7:c1:be:a1:6f:cd:fa:0d:c1:26:91:37:9f:4e:5c:30:
        ab:bc:f9:db:ee:c8:dd:03:8b:74:47:a0:f2:f0:5d:6d:ca:ea:
        12:a6:1f:bf:c3:07:d5:0c:16:14:aa:ed:8b:57:a1:2a:60:42:
        e4:81:26:4c:c3:f0:18:38:00:c0:d6:79:05:a8:51:81:66:f4:
        b6:54:ff:d2:cf:ed:bd:ee:7f:b6:df:07:e0:57:17:af:a2:c0:
        55:93:24:5e:a6:4e:55:d4:c7:87:a8:8c:51:d9:b0:42:53:df:
        dc:4f:34:68:f6:61:80:11:0c:fd:e5:64:08:10:ed:e0:c2:2c:
        14:cd:bc:a9:94:a9:ae:52:6e:cd:1f:6c:de:8b:fa:80:20:fc:
        6a:b0:f7:df:9e:90:08:84:1f:63:82:bc:d3:64:01:95:f0:e6:
        3f:e7:ff:2e:d1:33:8f:6a:72:02:b3:fb:49:a8:43:ed:6b:6a:
        61:93:5b:c4:1e:5c:48:a4:36:79:f4:71:e9:07:22:1f:be:7e:
        43:10:e9:6a
-----BEGIN CERTIFICATE-----
MIIDyjCCArKgAwIBAgIJAIwyiFl5ezzMMA0GCSqGSIb3DQEBCwUAMEwxGjAYBgNV
BAoTEWFkdmFuY2VkZmlsdGVyaW5nMQ4wDAYDVQQLEwVob3N0czEeMBwGA1UEAxMV
QWR2YW5jZWQgRmlsdGVyaW5nIENBMB4XDTEzMDQxMjE0Mzg1NFoXDTIzMDQxMDE0
Mzg1NFowTDEaMBgGA1UEChMRYWR2YW5jZWRmaWx0ZXJpbmcxDjAMBgNVBAsTBWhv
c3RzMR4wHAYDVQQDExVBZHZhbmNlZCBGaWx0ZXJpbmcgQ0EwggEiMA0GCSqGSIb3
DQEBAQUAA4IBDwAwggEKAoIBAQDOpWAKl+QBoNBKAURhfdQ6mwSqYF5isTfuT0us
l8gw8dfQfRKMSBng1jxaH8GpdF699DDZagVHkDW5taVNfOnWFp60a2t6KjHgk6O8
HPeyqYqt+RJyqeha19FRcb12jG2aAa4y2QtIoUmJGVDOaJIQWo2WB+aerqccxisd
MxpGdYFd4TGm1+DEsxoDkacx+uQHGGiL3JiooUW/wH7+2VPCg6DVtzbXBP+unqik
vYrdYpz6lLaGROygA768eiVNY7xf5odkqzH8SMcQ+0vzemWqvl5ZKIht9qHUls5Z
XlD7NKf0EL8ZlXUFOPZP52RK0lkLoZiSCPIKvgaUMRbEWEW1AgMBAAGjga4wgasw
HQYDVR0OBBYEFMZ8P9rprGsvo48mAxUL3GUIUZidMHwGA1UdIwR1MHOAFMZ8P9rp
rGsvo48mAxUL3GUIUZidoVCkTjBMMRowGAYDVQQKExFhZHZhbmNlZGZpbHRlcmlu
ZzEOMAwGA1UECxMFaG9zdHMxHjAcBgNVBAMTFUFkdmFuY2VkIEZpbHRlcmluZyBD
QYIJAIwyiFl5ezzMMAwGA1UdEwQFMAMBAf8wDQYJKoZIhvcNAQELBQADggEBAHKM
9/zphWGXI8SUeQGvw2UXtk+U/0ABBptDWWw7Z38ODh2gtB1YiegmyMlAg/CJ1UvP
t6irgnG+98G+oW/N+g3BJpE3n05cMKu8+dvuyN0Di3RHoPLwXW3K6hKmH7/DB9UM
FhSq7YtXoSpgQuSBJkzD8Bg4AMDWeQWoUYFm9LZU/9LP7b3uf7bfB+BXF6+iwFWT
JF6mTlXUx4eojFHZsEJT39xPNGj2YYARDP3lZAgQ7eDCLBTNvKmUqa5Sbs0fbN6L
+oAg/Gqw99+ekAiEH2OCvNNkAZXw5j/n/y7RM49qcgKz+0moQ+1ramGTW8QeXEik
Nnn0cekHIh++fkMQ6Wo=
-----END CERTIFICATE-----
