Certificate:
    Data:
        Version: 3 (0x2)
        Serial Number: 1 (0x1)
        Signature Algorithm: sha256WithRSAEncryption
        Issuer: O=advancedfiltering, OU=hosts, CN=Advanced Filtering CA
        Validity
            Not Before: Apr 12 14:39:52 2013 GMT
            Not After : Apr 10 14:39:52 2023 GMT
        Subject: O=advancedfiltering, OU=hosts, CN=deploy.hosts.advancedfiltering.net
        Subject Public Key Info:
            Public Key Algorithm: rsaEncryption
            RSA Public Key: (2048 bit)
                Modulus (2048 bit):
                    00:e5:64:f3:15:45:2c:90:00:42:dd:79:bb:7a:51:
                    38:7a:6e:c2:d5:0b:65:ee:5d:7a:ae:82:ca:82:b2:
                    a5:ff:a8:e7:15:fd:ea:cc:3d:11:2f:d0:11:a8:fa:
                    64:55:c8:f7:12:55:d5:24:64:33:95:1f:9c:69:7d:
                    bb:b0:00:e2:0c:5c:0e:af:57:9d:b2:87:48:d4:f9:
                    d8:a4:77:0f:ef:f0:94:e1:80:a9:92:42:ae:fc:1e:
                    9b:bf:5b:d4:64:b6:e7:3f:1e:5f:a2:26:5b:6a:f1:
                    b5:52:08:7e:0a:ff:a8:47:62:87:6d:2a:d2:00:34:
                    f9:2e:79:e6:e5:78:34:8c:47:08:c4:3c:59:33:a3:
                    4a:46:4b:29:93:53:71:ed:c2:68:e3:69:48:fd:09:
                    e2:d2:48:b3:76:80:56:75:79:ab:89:09:7c:81:5b:
                    c1:cc:c8:04:87:36:8b:02:07:8b:62:b0:2e:3a:07:
                    98:52:95:1e:4f:41:83:5f:d9:8b:b9:86:85:26:c0:
                    d4:eb:d6:e3:83:3b:72:26:cf:99:c0:51:79:43:06:
                    80:b1:74:d0:04:bd:91:c5:a5:6a:d4:91:b2:a5:8a:
                    9e:7f:ab:a3:ae:6d:ca:21:ce:5d:8b:23:d5:68:05:
                    81:60:7e:4b:1e:f9:db:7c:b2:c4:b9:3b:22:67:b8:
                    1b:7d
                Exponent: 65537 (0x10001)
        X509v3 extensions:
            X509v3 Basic Constraints: 
                CA:FALSE
            Netscape Cert Type: 
                SSL Server
            Netscape Comment: 
                Easy-RSA Generated Server Certificate
            X509v3 Subject Key Identifier: 
                18:5A:AB:67:CA:C9:B6:B5:1C:72:C8:7D:48:0C:C7:FA:95:BF:B1:69
            X509v3 Authority Key Identifier: 
                keyid:C6:7C:3F:DA:E9:AC:6B:2F:A3:8F:26:03:15:0B:DC:65:08:51:98:9D
                DirName:/O=advancedfiltering/OU=hosts/CN=Advanced Filtering CA
                serial:8C:32:88:59:79:7B:3C:CC

            X509v3 Extended Key Usage: 
                TLS Web Server Authentication
            X509v3 Key Usage: 
                Digital Signature, Key Encipherment
    Signature Algorithm: sha256WithRSAEncryption
        3d:68:64:28:ef:8d:15:22:6c:a9:31:c7:e6:11:30:33:81:18:
        f7:03:60:aa:8a:9b:32:ec:d7:0c:fd:8b:6f:f7:df:34:31:50:
        cb:57:54:c6:11:8f:8f:ff:37:3d:a6:15:54:96:1f:f6:a0:68:
        5d:50:48:8e:7d:3d:0a:a7:4f:59:a5:b0:b3:67:8f:55:ac:8a:
        5b:03:f0:ae:07:12:60:8f:ff:84:cd:69:d8:2b:c2:b9:4c:21:
        6f:e5:4f:db:c6:7d:c2:90:0c:06:76:9a:26:d7:db:5f:fd:6d:
        8d:80:cc:29:7b:7b:a3:e9:40:67:b9:d0:00:83:f7:63:63:3f:
        cc:89:dd:96:83:bb:de:18:e2:c3:74:e6:89:3c:eb:a0:e1:55:
        d9:4f:b6:a2:3f:d1:cc:5f:e0:7f:01:40:1b:71:4d:3d:f6:80:
        3f:2f:7e:b2:ac:62:e9:32:c7:79:3d:86:4e:13:f7:0b:97:83:
        9e:80:78:f8:03:e7:d3:44:ab:cf:c0:84:16:a3:df:b0:b7:d7:
        f6:3c:c1:2e:cd:88:e8:16:39:0d:df:f0:8e:ab:9a:08:96:26:
        f8:f1:bc:db:84:cb:6a:3a:1b:3c:a6:5d:9b:e5:8c:b5:a3:26:
        71:d1:2c:53:2e:49:bc:7b:61:6e:d8:bb:f8:77:e6:a7:bd:6f:
        97:96:a6:8c
-----BEGIN CERTIFICATE-----
MIIEOTCCAyGgAwIBAgIBATANBgkqhkiG9w0BAQsFADBMMRowGAYDVQQKExFhZHZh
bmNlZGZpbHRlcmluZzEOMAwGA1UECxMFaG9zdHMxHjAcBgNVBAMTFUFkdmFuY2Vk
IEZpbHRlcmluZyBDQTAeFw0xMzA0MTIxNDM5NTJaFw0yMzA0MTAxNDM5NTJaMFkx
GjAYBgNVBAoTEWFkdmFuY2VkZmlsdGVyaW5nMQ4wDAYDVQQLEwVob3N0czErMCkG
A1UEAxMiZGVwbG95Lmhvc3RzLmFkdmFuY2VkZmlsdGVyaW5nLm5ldDCCASIwDQYJ
KoZIhvcNAQEBBQADggEPADCCAQoCggEBAOVk8xVFLJAAQt15u3pROHpuwtULZe5d
eq6CyoKypf+o5xX96sw9ES/QEaj6ZFXI9xJV1SRkM5UfnGl9u7AA4gxcDq9XnbKH
SNT52KR3D+/wlOGAqZJCrvwem79b1GS25z8eX6ImW2rxtVIIfgr/qEdih20q0gA0
+S555uV4NIxHCMQ8WTOjSkZLKZNTce3CaONpSP0J4tJIs3aAVnV5q4kJfIFbwczI
BIc2iwIHi2KwLjoHmFKVHk9Bg1/Zi7mGhSbA1OvW44M7cibPmcBReUMGgLF00AS9
kcWlatSRsqWKnn+ro65tyiHOXYsj1WgFgWB+Sx7523yyxLk7Ime4G30CAwEAAaOC
ARcwggETMAkGA1UdEwQCMAAwEQYJYIZIAYb4QgEBBAQDAgZAMDQGCWCGSAGG+EIB
DQQnFiVFYXN5LVJTQSBHZW5lcmF0ZWQgU2VydmVyIENlcnRpZmljYXRlMB0GA1Ud
DgQWBBQYWqtnysm2tRxyyH1IDMf6lb+xaTB8BgNVHSMEdTBzgBTGfD/a6axrL6OP
JgMVC9xlCFGYnaFQpE4wTDEaMBgGA1UEChMRYWR2YW5jZWRmaWx0ZXJpbmcxDjAM
BgNVBAsTBWhvc3RzMR4wHAYDVQQDExVBZHZhbmNlZCBGaWx0ZXJpbmcgQ0GCCQCM
MohZeXs8zDATBgNVHSUEDDAKBggrBgEFBQcDATALBgNVHQ8EBAMCBaAwDQYJKoZI
hvcNAQELBQADggEBAD1oZCjvjRUibKkxx+YRMDOBGPcDYKqKmzLs1wz9i2/33zQx
UMtXVMYRj4//Nz2mFVSWH/agaF1QSI59PQqnT1mlsLNnj1WsilsD8K4HEmCP/4TN
adgrwrlMIW/lT9vGfcKQDAZ2mibX21/9bY2AzCl7e6PpQGe50ACD92NjP8yJ3ZaD
u94Y4sN05ok866DhVdlPtqI/0cxf4H8BQBtxTT32gD8vfrKsYukyx3k9hk4T9wuX
g56AePgD59NEq8/AhBaj37C31/Y8wS7NiOgWOQ3f8I6rmgiWJvjxvNuEy2o6Gzym
XZvljLWjJnHRLFMuSbx7YW7Yu/h35qe9b5eWpow=
-----END CERTIFICATE-----
