Certificate:
    Data:
        Version: 3 (0x2)
        Serial Number: 3 (0x3)
        Signature Algorithm: sha256WithRSAEncryption
        Issuer: O=advancedfiltering, OU=hosts, CN=Advanced Filtering CA
        Validity
            Not Before: Apr 12 14:40:32 2013 GMT
            Not After : Apr 10 14:40:32 2023 GMT
        Subject: O=advancedfiltering, OU=hosts, CN=h02.hosts.advancedfiltering.net
        Subject Public Key Info:
            Public Key Algorithm: rsaEncryption
            RSA Public Key: (2048 bit)
                Modulus (2048 bit):
                    00:ad:4a:72:51:5b:81:f9:25:ab:92:01:27:fb:89:
                    99:df:f1:df:f6:f4:1f:59:cb:4f:59:0d:c3:47:19:
                    cd:f9:ee:7f:73:42:e4:00:47:e8:0a:7f:90:59:ac:
                    41:98:62:e2:40:23:b3:1a:53:94:d8:ea:20:bb:05:
                    7e:77:c9:ed:81:d6:3f:e3:db:5a:57:c2:b8:32:1a:
                    51:85:cc:8c:c7:ce:39:9a:26:63:3f:67:fe:e3:ec:
                    3c:ee:d5:06:76:03:fa:eb:c1:cd:9e:d2:b9:ff:83:
                    1d:af:1c:b6:87:fd:1e:ce:4d:ad:ae:8e:0f:4e:41:
                    f8:27:01:dd:e0:be:82:bc:8b:da:b6:63:b0:ab:e1:
                    4e:fb:3c:99:51:69:5d:9c:dd:38:85:f1:86:45:db:
                    c7:59:39:ad:c2:77:ee:f1:74:b4:08:2a:8c:f7:d7:
                    04:9b:ae:24:98:97:66:cf:ce:a1:08:ce:3d:5c:bc:
                    a0:d3:b7:12:d9:b7:9d:50:1d:9f:3b:92:68:f7:98:
                    d1:f7:04:42:f6:15:0d:b8:ae:ba:99:29:ca:6f:0c:
                    6f:d2:ac:55:3f:b7:2e:77:03:a8:06:19:25:d3:2c:
                    34:c9:72:a3:58:0f:54:50:bc:98:fc:88:ec:78:4d:
                    df:78:97:da:0a:71:3a:3c:8c:00:ce:2d:64:39:bb:
                    ca:77
                Exponent: 65537 (0x10001)
        X509v3 extensions:
            X509v3 Basic Constraints: 
                CA:FALSE
            Netscape Cert Type: 
                SSL Server
            Netscape Comment: 
                Easy-RSA Generated Server Certificate
            X509v3 Subject Key Identifier: 
                F2:4C:C0:09:81:EF:EF:CD:08:F6:65:10:BF:42:EE:6D:68:2D:19:1A
            X509v3 Authority Key Identifier: 
                keyid:C6:7C:3F:DA:E9:AC:6B:2F:A3:8F:26:03:15:0B:DC:65:08:51:98:9D
                DirName:/O=advancedfiltering/OU=hosts/CN=Advanced Filtering CA
                serial:8C:32:88:59:79:7B:3C:CC

            X509v3 Extended Key Usage: 
                TLS Web Server Authentication
            X509v3 Key Usage: 
                Digital Signature, Key Encipherment
    Signature Algorithm: sha256WithRSAEncryption
        18:c1:30:b4:cb:80:5a:d2:e5:9c:25:19:21:ce:f3:26:13:32:
        37:5d:4f:a1:f9:67:c5:bc:51:ed:06:e1:b0:4a:e9:96:93:9a:
        49:0f:94:93:3c:07:66:ea:c2:78:8e:61:dc:a1:20:4d:e9:87:
        fb:a7:68:71:61:b5:95:fe:dc:43:5b:e5:81:d6:d2:34:7e:9d:
        f7:22:78:14:b7:c2:c9:9d:89:d0:93:00:03:89:ba:68:5a:41:
        44:43:8c:3a:47:11:10:8d:4d:58:8b:7e:6a:08:03:b0:1d:dc:
        ca:6a:bd:ea:84:08:08:cf:52:93:94:5f:3c:a6:22:70:83:a2:
        b7:d0:a4:18:f7:88:66:bd:98:f7:66:bb:89:80:4a:bc:65:1e:
        a6:01:e2:35:0e:64:04:8b:42:ed:61:ac:ba:2a:4a:b0:ad:d5:
        89:eb:48:a1:5c:97:82:84:a2:07:f6:a6:39:b7:26:6a:de:6e:
        58:de:b2:87:6f:39:2d:96:89:45:71:d9:da:f0:57:c6:be:08:
        09:8e:11:12:d5:79:84:5a:28:b8:32:b3:c0:60:a5:6e:5b:34:
        c1:2e:3c:01:dc:3b:6f:b2:35:fe:11:07:79:62:81:25:de:ee:
        9b:9f:9e:56:2a:11:ae:3c:d0:75:cc:a6:9c:95:6d:3d:95:96:
        2e:bc:9c:2b
-----BEGIN CERTIFICATE-----
MIIENjCCAx6gAwIBAgIBAzANBgkqhkiG9w0BAQsFADBMMRowGAYDVQQKExFhZHZh
bmNlZGZpbHRlcmluZzEOMAwGA1UECxMFaG9zdHMxHjAcBgNVBAMTFUFkdmFuY2Vk
IEZpbHRlcmluZyBDQTAeFw0xMzA0MTIxNDQwMzJaFw0yMzA0MTAxNDQwMzJaMFYx
GjAYBgNVBAoTEWFkdmFuY2VkZmlsdGVyaW5nMQ4wDAYDVQQLEwVob3N0czEoMCYG
A1UEAxMfaDAyLmhvc3RzLmFkdmFuY2VkZmlsdGVyaW5nLm5ldDCCASIwDQYJKoZI
hvcNAQEBBQADggEPADCCAQoCggEBAK1KclFbgfklq5IBJ/uJmd/x3/b0H1nLT1kN
w0cZzfnuf3NC5ABH6Ap/kFmsQZhi4kAjsxpTlNjqILsFfnfJ7YHWP+PbWlfCuDIa
UYXMjMfOOZomYz9n/uPsPO7VBnYD+uvBzZ7Suf+DHa8ctof9Hs5Nra6OD05B+CcB
3eC+gryL2rZjsKvhTvs8mVFpXZzdOIXxhkXbx1k5rcJ37vF0tAgqjPfXBJuuJJiX
Zs/OoQjOPVy8oNO3Etm3nVAdnzuSaPeY0fcEQvYVDbiuupkpym8Mb9KsVT+3LncD
qAYZJdMsNMlyo1gPVFC8mPyI7HhN33iX2gpxOjyMAM4tZDm7yncCAwEAAaOCARcw
ggETMAkGA1UdEwQCMAAwEQYJYIZIAYb4QgEBBAQDAgZAMDQGCWCGSAGG+EIBDQQn
FiVFYXN5LVJTQSBHZW5lcmF0ZWQgU2VydmVyIENlcnRpZmljYXRlMB0GA1UdDgQW
BBTyTMAJge/vzQj2ZRC/Qu5taC0ZGjB8BgNVHSMEdTBzgBTGfD/a6axrL6OPJgMV
C9xlCFGYnaFQpE4wTDEaMBgGA1UEChMRYWR2YW5jZWRmaWx0ZXJpbmcxDjAMBgNV
BAsTBWhvc3RzMR4wHAYDVQQDExVBZHZhbmNlZCBGaWx0ZXJpbmcgQ0GCCQCMMohZ
eXs8zDATBgNVHSUEDDAKBggrBgEFBQcDATALBgNVHQ8EBAMCBaAwDQYJKoZIhvcN
AQELBQADggEBABjBMLTLgFrS5ZwlGSHO8yYTMjddT6H5Z8W8Ue0G4bBK6ZaTmkkP
lJM8B2bqwniOYdyhIE3ph/unaHFhtZX+3ENb5YHW0jR+nfcieBS3wsmdidCTAAOJ
umhaQURDjDpHERCNTViLfmoIA7Ad3MpqveqECAjPUpOUXzymInCDorfQpBj3iGa9
mPdmu4mASrxlHqYB4jUOZASLQu1hrLoqSrCt1YnrSKFcl4KEogf2pjm3Jmreblje
sodvOS2WiUVx2drwV8a+CAmOERLVeYRaKLgys8BgpW5bNMEuPAHcO2+yNf4RB3li
gSXe7pufnlYqEa480HXMppyVbT2Vli68nCs=
-----END CERTIFICATE-----
