Certificate:
    Data:
        Version: 3 (0x2)
        Serial Number: 6 (0x6)
        Signature Algorithm: sha256WithRSAEncryption
        Issuer: O=advancedfiltering, OU=hosts, CN=Advanced Filtering CA
        Validity
            Not Before: Apr 14 14:09:11 2013 GMT
            Not After : Apr 12 14:09:11 2023 GMT
        Subject: O=advancedfiltering, OU=hosts, CN=test1
        Subject Public Key Info:
            Public Key Algorithm: rsaEncryption
            RSA Public Key: (2048 bit)
                Modulus (2048 bit):
                    00:b7:6e:ac:55:d9:9b:d2:21:13:8b:d0:93:18:4d:
                    8b:6b:87:7c:77:30:54:5d:1e:19:31:a0:b1:ca:2a:
                    85:8d:a1:cf:a4:c1:36:c8:ca:57:9f:94:4f:4a:75:
                    bc:1b:a9:90:cb:59:e6:0a:52:89:d3:92:ba:bf:39:
                    80:c6:c2:10:97:cc:e5:67:ab:b0:38:08:aa:6c:ea:
                    af:00:27:a8:e5:b2:88:af:97:bc:ce:5d:d4:04:77:
                    33:45:52:58:70:4a:a8:b2:47:28:4d:e7:f8:1e:5c:
                    60:93:54:94:c7:82:8b:5f:80:09:00:c6:70:51:b7:
                    93:37:92:96:c3:e3:5c:98:3f:08:ec:8a:d7:03:5c:
                    0e:2f:14:13:71:c4:2b:af:e8:55:16:c5:d1:e3:a7:
                    e8:76:ac:2d:d8:67:eb:43:b5:84:ee:1b:f4:b6:60:
                    07:9d:1c:fa:7e:03:6d:b5:91:d9:03:20:06:96:c1:
                    d8:50:bd:f0:8c:bc:2b:22:27:4f:48:52:bd:72:4c:
                    8f:dc:15:bf:9a:c7:37:9e:90:8e:73:b2:0d:2e:a6:
                    9b:6a:29:cc:5b:86:22:22:ca:37:3f:ff:53:92:e1:
                    c7:ff:9d:a0:ef:84:7b:22:2d:54:1c:6a:ba:0a:b9:
                    5e:3f:45:5c:7b:dd:23:d9:79:ed:8d:0d:2e:56:6e:
                    7b:53
                Exponent: 65537 (0x10001)
        X509v3 extensions:
            X509v3 Basic Constraints: 
                CA:FALSE
            Netscape Cert Type: 
                SSL Client, SSL Server
            Netscape Comment: 
                Easy-RSA Generated Server Certificate
            X509v3 Subject Key Identifier: 
                24:BE:8F:E3:23:08:4A:1A:93:15:51:16:77:93:7B:6F:79:B9:88:15
            X509v3 Authority Key Identifier: 
                keyid:C6:7C:3F:DA:E9:AC:6B:2F:A3:8F:26:03:15:0B:DC:65:08:51:98:9D
                DirName:/O=advancedfiltering/OU=hosts/CN=Advanced Filtering CA
                serial:8C:32:88:59:79:7B:3C:CC

            X509v3 Extended Key Usage: 
                TLS Web Server Authentication
            X509v3 Key Usage: 
                Digital Signature, Key Encipherment
    Signature Algorithm: sha256WithRSAEncryption
        c2:a0:37:f7:bd:18:25:b5:3c:48:eb:60:18:50:b3:8c:f7:57:
        33:b1:05:20:e1:12:23:51:e8:ae:04:e6:84:d0:2b:bb:43:3f:
        71:c7:58:4e:45:43:81:19:48:b3:56:ff:05:f9:49:c9:e5:d0:
        af:2b:cf:05:b8:a2:36:02:8c:03:36:e2:cd:9d:60:80:a3:74:
        78:ce:9b:c5:fd:25:73:a2:74:a0:a7:c3:64:ce:bf:67:d1:4e:
        25:4d:3a:fc:04:b9:3e:c9:85:ea:56:9c:53:8d:ca:06:a2:cb:
        c0:a4:52:42:34:73:56:a3:6c:97:11:d1:8b:94:c2:9e:5b:a4:
        1d:81:ba:2a:e9:c6:1c:46:7a:47:b1:e8:a6:dd:ad:b2:84:3d:
        8e:0c:20:31:ba:8b:33:f8:03:81:ae:d8:45:3e:82:d6:ca:25:
        f6:50:4b:98:50:ee:d8:65:52:6b:b9:cf:7e:b3:a4:9d:6f:e4:
        b0:93:96:e0:2d:7c:53:91:1e:27:ee:9f:3a:72:e8:93:f5:42:
        a3:4d:ef:27:ec:61:dc:22:f6:22:63:34:d2:d7:88:51:18:54:
        a8:0a:9e:dd:dd:21:6a:b4:26:eb:de:ca:20:47:aa:6d:1b:cf:
        68:fb:82:97:42:f2:e7:c3:2c:b2:e9:d6:48:8b:ba:57:4f:25:
        25:96:57:c4
-----BEGIN CERTIFICATE-----
MIIEHDCCAwSgAwIBAgIBBjANBgkqhkiG9w0BAQsFADBMMRowGAYDVQQKExFhZHZh
bmNlZGZpbHRlcmluZzEOMAwGA1UECxMFaG9zdHMxHjAcBgNVBAMTFUFkdmFuY2Vk
IEZpbHRlcmluZyBDQTAeFw0xMzA0MTQxNDA5MTFaFw0yMzA0MTIxNDA5MTFaMDwx
GjAYBgNVBAoTEWFkdmFuY2VkZmlsdGVyaW5nMQ4wDAYDVQQLEwVob3N0czEOMAwG
A1UEAxMFdGVzdDEwggEiMA0GCSqGSIb3DQEBAQUAA4IBDwAwggEKAoIBAQC3bqxV
2ZvSIROL0JMYTYtrh3x3MFRdHhkxoLHKKoWNoc+kwTbIyleflE9KdbwbqZDLWeYK
UonTkrq/OYDGwhCXzOVnq7A4CKps6q8AJ6jlsoivl7zOXdQEdzNFUlhwSqiyRyhN
5/geXGCTVJTHgotfgAkAxnBRt5M3kpbD41yYPwjsitcDXA4vFBNxxCuv6FUWxdHj
p+h2rC3YZ+tDtYTuG/S2YAedHPp+A221kdkDIAaWwdhQvfCMvCsiJ09IUr1yTI/c
Fb+axzeekI5zsg0upptqKcxbhiIiyjc//1OS4cf/naDvhHsiLVQcaroKuV4/RVx7
3SPZee2NDS5WbntTAgMBAAGjggEXMIIBEzAJBgNVHRMEAjAAMBEGCWCGSAGG+EIB
AQQEAwIGwDA0BglghkgBhvhCAQ0EJxYlRWFzeS1SU0EgR2VuZXJhdGVkIFNlcnZl
ciBDZXJ0aWZpY2F0ZTAdBgNVHQ4EFgQUJL6P4yMIShqTFVEWd5N7b3m5iBUwfAYD
VR0jBHUwc4AUxnw/2umsay+jjyYDFQvcZQhRmJ2hUKROMEwxGjAYBgNVBAoTEWFk
dmFuY2VkZmlsdGVyaW5nMQ4wDAYDVQQLEwVob3N0czEeMBwGA1UEAxMVQWR2YW5j
ZWQgRmlsdGVyaW5nIENBggkAjDKIWXl7PMwwEwYDVR0lBAwwCgYIKwYBBQUHAwEw
CwYDVR0PBAQDAgWgMA0GCSqGSIb3DQEBCwUAA4IBAQDCoDf3vRgltTxI62AYULOM
91czsQUg4RIjUeiuBOaE0Cu7Qz9xx1hORUOBGUizVv8F+UnJ5dCvK88FuKI2AowD
NuLNnWCAo3R4zpvF/SVzonSgp8Nkzr9n0U4lTTr8BLk+yYXqVpxTjcoGosvApFJC
NHNWo2yXEdGLlMKeW6Qdgboq6cYcRnpHseim3a2yhD2ODCAxuosz+AOBrthFPoLW
yiX2UEuYUO7YZVJruc9+s6Sdb+Swk5bgLXxTkR4n7p86cuiT9UKjTe8n7GHcIvYi
YzTS14hRGFSoCp7d3SFqtCbr3sogR6ptG89o+4KXQvLnwyyy6dZIi7pXTyUlllfE
-----END CERTIFICATE-----
