Certificate:
    Data:
        Version: 3 (0x2)
        Serial Number: 7 (0x7)
        Signature Algorithm: sha256WithRSAEncryption
        Issuer: O=advancedfiltering, OU=hosts, CN=Advanced Filtering CA
        Validity
            Not Before: Apr 14 14:13:27 2013 GMT
            Not After : Apr 12 14:13:27 2023 GMT
        Subject: O=advancedfiltering, OU=hosts, CN=h02.hosts.advancedfiltering.net
        Subject Public Key Info:
            Public Key Algorithm: rsaEncryption
            RSA Public Key: (2048 bit)
                Modulus (2048 bit):
                    00:cd:1e:87:ff:d9:99:93:9f:a2:a6:d5:ae:fb:57:
                    12:a4:44:e5:73:ff:9a:87:be:38:04:dd:a8:db:0c:
                    01:42:f3:d2:60:7a:4f:d1:a6:58:bf:58:2d:b8:ae:
                    2d:1b:91:99:08:e2:44:60:9e:f3:03:4e:58:ed:6f:
                    8b:2c:bf:db:d8:53:e2:66:94:48:d3:e8:d9:bc:81:
                    c2:4e:85:d8:c7:b9:a3:e3:33:e4:ce:ea:ff:94:b7:
                    51:b9:1b:4d:ce:e2:7a:e1:fb:49:3e:80:15:c4:88:
                    70:44:03:5c:60:7f:36:a6:a5:e7:e8:50:b2:91:8c:
                    0d:01:7f:df:b6:11:44:4f:dc:aa:eb:73:c7:f9:4d:
                    8e:85:ca:d6:96:24:c6:a7:14:02:35:16:7d:5f:20:
                    ec:7e:0d:3c:2d:35:20:14:3d:72:e9:f6:fd:db:b2:
                    22:5e:42:18:e7:b3:77:73:63:1e:39:f3:de:0e:7f:
                    cb:e9:98:c3:f6:65:63:74:2d:9a:48:fa:ea:67:df:
                    9a:e0:a8:e0:46:27:aa:ce:e9:8e:a3:d3:40:e5:62:
                    43:36:a3:8d:ee:90:f9:29:01:e3:18:71:1c:ac:d2:
                    82:a1:76:48:a9:3d:e3:d1:4d:15:6b:42:92:e5:68:
                    06:22:36:bd:02:81:29:46:47:6c:48:18:d2:b5:a8:
                    7f:b3
                Exponent: 65537 (0x10001)
        X509v3 extensions:
            X509v3 Basic Constraints: 
                CA:FALSE
            Netscape Comment: 
                Easy-RSA Generated Certificate
            X509v3 Subject Key Identifier: 
                5E:F2:B2:EE:20:51:E5:D9:7E:35:BC:CD:8A:26:6B:5A:53:FC:D0:A3
            X509v3 Authority Key Identifier: 
                keyid:C6:7C:3F:DA:E9:AC:6B:2F:A3:8F:26:03:15:0B:DC:65:08:51:98:9D
                DirName:/O=advancedfiltering/OU=hosts/CN=Advanced Filtering CA
                serial:8C:32:88:59:79:7B:3C:CC

            X509v3 Extended Key Usage: 
                TLS Web Client Authentication
            X509v3 Key Usage: 
                Digital Signature
    Signature Algorithm: sha256WithRSAEncryption
        4f:3a:52:2e:e7:b6:6e:10:d5:ed:a9:d2:36:cd:38:b1:23:59:
        a4:b3:61:ae:65:67:fa:34:8e:43:8e:6e:ff:21:c3:1b:88:12:
        7d:9a:64:91:b3:16:03:5b:87:5f:3e:71:57:58:1c:e8:77:68:
        fc:2e:1a:ed:ee:ca:5f:a0:bb:ac:34:1a:11:bb:83:7b:f3:04:
        40:e3:45:3a:67:b1:32:15:01:2b:7e:bc:39:ab:74:08:53:71:
        d6:37:74:ae:12:4e:03:12:42:0e:9d:ca:f5:a0:2a:93:1e:e2:
        ad:b7:38:9e:3c:af:ee:28:6d:cd:38:0b:5d:e3:82:9b:c6:b6:
        8a:a0:96:5a:80:fc:c5:18:10:a4:2a:70:38:a5:50:23:47:e3:
        e2:da:04:33:3a:ee:bd:bd:10:98:68:53:f0:49:1d:53:cb:db:
        6e:b5:10:06:c1:c1:53:74:da:b7:b5:50:f1:eb:c0:25:e7:d4:
        12:99:a5:5c:90:d5:8f:73:75:8d:dd:cf:6a:1e:a8:d8:dc:f6:
        2a:d8:02:2a:e8:0d:71:3e:66:f6:eb:28:19:4d:e5:9f:e4:a0:
        d8:cf:2b:1b:04:5d:38:f3:0a:8c:83:ac:1c:cc:10:1e:ed:da:
        77:2c:ce:28:3e:53:f4:b9:17:06:9b:96:78:11:85:72:cd:bb:
        a5:4d:38:55
-----BEGIN CERTIFICATE-----
MIIEGjCCAwKgAwIBAgIBBzANBgkqhkiG9w0BAQsFADBMMRowGAYDVQQKExFhZHZh
bmNlZGZpbHRlcmluZzEOMAwGA1UECxMFaG9zdHMxHjAcBgNVBAMTFUFkdmFuY2Vk
IEZpbHRlcmluZyBDQTAeFw0xMzA0MTQxNDEzMjdaFw0yMzA0MTIxNDEzMjdaMFYx
GjAYBgNVBAoTEWFkdmFuY2VkZmlsdGVyaW5nMQ4wDAYDVQQLEwVob3N0czEoMCYG
A1UEAxMfaDAyLmhvc3RzLmFkdmFuY2VkZmlsdGVyaW5nLm5ldDCCASIwDQYJKoZI
hvcNAQEBBQADggEPADCCAQoCggEBAM0eh//ZmZOfoqbVrvtXEqRE5XP/moe+OATd
qNsMAULz0mB6T9GmWL9YLbiuLRuRmQjiRGCe8wNOWO1viyy/29hT4maUSNPo2byB
wk6F2Me5o+Mz5M7q/5S3UbkbTc7ieuH7ST6AFcSIcEQDXGB/Nqal5+hQspGMDQF/
37YRRE/cqutzx/lNjoXK1pYkxqcUAjUWfV8g7H4NPC01IBQ9cun2/duyIl5CGOez
d3NjHjnz3g5/y+mYw/ZlY3Qtmkj66mffmuCo4EYnqs7pjqPTQOViQzajje6Q+SkB
4xhxHKzSgqF2SKk949FNFWtCkuVoBiI2vQKBKUZHbEgY0rWof7MCAwEAAaOB/DCB
+TAJBgNVHRMEAjAAMC0GCWCGSAGG+EIBDQQgFh5FYXN5LVJTQSBHZW5lcmF0ZWQg
Q2VydGlmaWNhdGUwHQYDVR0OBBYEFF7ysu4gUeXZfjW8zYoma1pT/NCjMHwGA1Ud
IwR1MHOAFMZ8P9rprGsvo48mAxUL3GUIUZidoVCkTjBMMRowGAYDVQQKExFhZHZh
bmNlZGZpbHRlcmluZzEOMAwGA1UECxMFaG9zdHMxHjAcBgNVBAMTFUFkdmFuY2Vk
IEZpbHRlcmluZyBDQYIJAIwyiFl5ezzMMBMGA1UdJQQMMAoGCCsGAQUFBwMCMAsG
A1UdDwQEAwIHgDANBgkqhkiG9w0BAQsFAAOCAQEATzpSLue2bhDV7anSNs04sSNZ
pLNhrmVn+jSOQ45u/yHDG4gSfZpkkbMWA1uHXz5xV1gc6Hdo/C4a7e7KX6C7rDQa
EbuDe/MEQONFOmexMhUBK368Oat0CFNx1jd0rhJOAxJCDp3K9aAqkx7irbc4njyv
7ihtzTgLXeOCm8a2iqCWWoD8xRgQpCpwOKVQI0fj4toEMzruvb0QmGhT8EkdU8vb
brUQBsHBU3Tat7VQ8evAJefUEpmlXJDVj3N1jd3Pah6o2Nz2KtgCKugNcT5m9uso
GU3ln+Sg2M8rGwRdOPMKjIOsHMwQHu3adyzOKD5T9LkXBpuWeBGFcs27pU04VQ==
-----END CERTIFICATE-----
