Certificate:
    Data:
        Version: 3 (0x2)
        Serial Number: 8 (0x8)
        Signature Algorithm: sha256WithRSAEncryption
        Issuer: O=advancedfiltering, OU=hosts, CN=Advanced Filtering CA
        Validity
            Not Before: Apr 14 14:20:36 2013 GMT
            Not After : Apr 12 14:20:36 2023 GMT
        Subject: O=advancedfiltering, OU=hosts, CN=h01.hosts.advancedfiltering.net
        Subject Public Key Info:
            Public Key Algorithm: rsaEncryption
            RSA Public Key: (2048 bit)
                Modulus (2048 bit):
                    00:bf:af:79:a5:67:4a:d6:aa:a5:62:2d:2c:38:b3:
                    72:ee:76:d5:80:67:20:cc:82:7b:ff:f7:52:bb:0d:
                    9a:d3:d5:f4:a8:07:b8:36:f9:12:57:b9:a1:84:64:
                    d2:33:d6:02:f0:47:dd:42:8d:2d:ed:a4:ed:38:90:
                    7a:7c:80:2a:6c:d7:47:65:d9:f4:d2:ca:f9:20:57:
                    7c:b8:95:5a:da:f8:12:d7:7b:2d:70:28:d8:52:a7:
                    00:76:5d:7a:f5:e9:2a:5c:22:d2:da:c3:cc:bb:0d:
                    96:73:a1:5c:54:a3:9e:8a:08:ae:d6:e2:22:b0:87:
                    03:1c:04:26:b7:f5:3d:be:3c:a0:e2:fa:a9:ec:6a:
                    86:f0:4c:40:1d:44:cf:a4:0d:32:e3:67:63:f4:76:
                    fa:b4:3a:0b:83:a8:1d:10:f6:d6:06:9c:36:ee:1f:
                    ca:bf:05:17:2c:9e:18:4a:ea:03:fb:47:ee:95:02:
                    d8:13:ce:54:4b:07:f8:cb:a2:67:ba:2d:dc:5c:1a:
                    d4:40:ef:f7:b5:bb:47:21:fb:12:30:84:99:41:43:
                    1e:81:45:1d:e4:b3:27:7d:7b:23:e6:b6:f3:97:d6:
                    99:9e:a3:15:c9:3e:22:9f:ba:fb:5f:4a:00:e9:82:
                    2a:23:44:04:b3:b7:79:90:5c:89:44:88:d5:0d:90:
                    be:2d
                Exponent: 65537 (0x10001)
        X509v3 extensions:
            X509v3 Basic Constraints: 
                CA:FALSE
            Netscape Comment: 
                Easy-RSA Generated Certificate
            X509v3 Subject Key Identifier: 
                5D:BF:59:A9:43:9B:79:1C:9C:BD:0E:C9:3B:2C:1F:3D:8D:03:B7:2F
            X509v3 Authority Key Identifier: 
                keyid:C6:7C:3F:DA:E9:AC:6B:2F:A3:8F:26:03:15:0B:DC:65:08:51:98:9D
                DirName:/O=advancedfiltering/OU=hosts/CN=Advanced Filtering CA
                serial:8C:32:88:59:79:7B:3C:CC

            X509v3 Extended Key Usage: 
                TLS Web Client Authentication
            X509v3 Key Usage: 
                Digital Signature
    Signature Algorithm: sha256WithRSAEncryption
        bb:27:47:6a:36:bc:c0:58:cb:9a:38:80:73:ac:fb:e1:2f:40:
        78:fc:19:75:5b:9b:6b:d9:af:17:72:3f:c7:81:19:79:3e:14:
        6d:10:17:fa:24:d8:21:0e:b4:6e:3e:fc:c8:e6:cd:6c:4b:4d:
        51:13:f8:16:67:1a:62:2d:40:b7:7e:de:d5:41:dd:78:bd:b1:
        6b:6e:27:d4:b0:84:3c:2f:30:00:86:86:fe:5f:ee:80:0b:44:
        58:29:9a:0d:5c:83:4d:8a:9d:07:37:13:bc:00:d3:71:4b:be:
        18:5c:ea:c8:7b:4a:a8:43:c9:58:1c:97:82:18:7e:fc:6f:48:
        eb:61:56:ab:48:f3:57:a1:1f:3c:6c:6f:c8:48:ea:2b:07:a7:
        9e:d5:4f:ec:cf:fa:a1:3b:e4:62:13:3a:e6:b5:4f:cc:8c:1e:
        4f:04:16:3e:18:ac:7d:ac:60:e7:9e:ed:06:5b:37:9a:13:ff:
        ab:00:8f:ff:f3:7c:fd:53:0c:54:da:ee:85:39:55:dd:95:bc:
        34:25:6a:c5:b5:7b:18:ec:24:c2:88:52:51:89:71:9c:17:0e:
        57:1c:ce:33:66:01:10:4b:24:04:00:76:82:66:bd:82:32:89:
        8c:3e:04:67:fc:ca:3c:27:a8:a3:ce:a4:a6:05:c3:5c:3c:22:
        97:66:9a:85
-----BEGIN CERTIFICATE-----
MIIEGjCCAwKgAwIBAgIBCDANBgkqhkiG9w0BAQsFADBMMRowGAYDVQQKExFhZHZh
bmNlZGZpbHRlcmluZzEOMAwGA1UECxMFaG9zdHMxHjAcBgNVBAMTFUFkdmFuY2Vk
IEZpbHRlcmluZyBDQTAeFw0xMzA0MTQxNDIwMzZaFw0yMzA0MTIxNDIwMzZaMFYx
GjAYBgNVBAoTEWFkdmFuY2VkZmlsdGVyaW5nMQ4wDAYDVQQLEwVob3N0czEoMCYG
A1UEAxMfaDAxLmhvc3RzLmFkdmFuY2VkZmlsdGVyaW5nLm5ldDCCASIwDQYJKoZI
hvcNAQEBBQADggEPADCCAQoCggEBAL+veaVnStaqpWItLDizcu521YBnIMyCe//3
UrsNmtPV9KgHuDb5Ele5oYRk0jPWAvBH3UKNLe2k7TiQenyAKmzXR2XZ9NLK+SBX
fLiVWtr4Etd7LXAo2FKnAHZdevXpKlwi0trDzLsNlnOhXFSjnooIrtbiIrCHAxwE
Jrf1Pb48oOL6qexqhvBMQB1Ez6QNMuNnY/R2+rQ6C4OoHRD21gacNu4fyr8FFyye
GErqA/tH7pUC2BPOVEsH+MuiZ7ot3Fwa1EDv97W7RyH7EjCEmUFDHoFFHeSzJ317
I+a285fWmZ6jFck+Ip+6+19KAOmCKiNEBLO3eZBciUSI1Q2Qvi0CAwEAAaOB/DCB
+TAJBgNVHRMEAjAAMC0GCWCGSAGG+EIBDQQgFh5FYXN5LVJTQSBHZW5lcmF0ZWQg
Q2VydGlmaWNhdGUwHQYDVR0OBBYEFF2/WalDm3kcnL0OyTssHz2NA7cvMHwGA1Ud
IwR1MHOAFMZ8P9rprGsvo48mAxUL3GUIUZidoVCkTjBMMRowGAYDVQQKExFhZHZh
bmNlZGZpbHRlcmluZzEOMAwGA1UECxMFaG9zdHMxHjAcBgNVBAMTFUFkdmFuY2Vk
IEZpbHRlcmluZyBDQYIJAIwyiFl5ezzMMBMGA1UdJQQMMAoGCCsGAQUFBwMCMAsG
A1UdDwQEAwIHgDANBgkqhkiG9w0BAQsFAAOCAQEAuydHaja8wFjLmjiAc6z74S9A
ePwZdVuba9mvF3I/x4EZeT4UbRAX+iTYIQ60bj78yObNbEtNURP4FmcaYi1At37e
1UHdeL2xa24n1LCEPC8wAIaG/l/ugAtEWCmaDVyDTYqdBzcTvADTcUu+GFzqyHtK
qEPJWByXghh+/G9I62FWq0jzV6EfPGxvyEjqKwenntVP7M/6oTvkYhM65rVPzIwe
TwQWPhisfaxg557tBls3mhP/qwCP//N8/VMMVNruhTlV3ZW8NCVqxbV7GOwkwohS
UYlxnBcOVxzOM2YBEEskBAB2gma9gjKJjD4EZ/zKPCeoo86kpgXDXDwil2aahQ==
-----END CERTIFICATE-----
