Certificate:
    Data:
        Version: 3 (0x2)
        Serial Number: 9 (0x9)
        Signature Algorithm: sha256WithRSAEncryption
        Issuer: O=advancedfiltering, OU=hosts, CN=Advanced Filtering CA
        Validity
            Not Before: Apr 14 14:20:42 2013 GMT
            Not After : Apr 12 14:20:42 2023 GMT
        Subject: O=advancedfiltering, OU=hosts, CN=deploy.hosts.advancedfiltering.net
        Subject Public Key Info:
            Public Key Algorithm: rsaEncryption
            RSA Public Key: (2048 bit)
                Modulus (2048 bit):
                    00:c0:95:4d:e4:9d:f4:b4:43:12:bd:cb:6f:31:71:
                    e6:d5:84:7d:7e:1d:82:40:d0:4c:2a:07:52:23:26:
                    c1:3b:e9:c8:27:5d:d7:97:03:17:13:d8:d6:d7:da:
                    8b:e3:3e:49:4a:99:0f:f0:7b:02:d2:ea:3d:01:2e:
                    39:f4:47:f9:7a:60:b3:56:e8:ba:20:c3:7d:9a:ab:
                    84:4c:7e:ec:46:4b:62:7a:b1:32:0d:25:d7:76:e5:
                    68:41:21:d8:d3:ac:63:a2:c5:a4:d4:86:86:83:cd:
                    d7:ec:1a:55:f7:09:b8:07:88:d7:52:95:4e:e3:d4:
                    6b:f9:c0:5b:f2:cc:f2:ba:bf:07:cf:20:66:7a:78:
                    58:e3:59:dc:7d:bc:c9:29:f4:27:e6:a7:f4:d2:89:
                    a8:30:4f:35:09:43:18:64:16:8b:cb:3f:ea:77:24:
                    70:86:13:c8:7c:f2:05:4a:63:13:ec:f4:1f:a5:d5:
                    2d:cf:19:72:9c:91:da:34:1d:31:9a:84:ec:2a:0b:
                    47:db:62:b9:39:b3:b6:ca:0a:80:92:9d:ed:fc:60:
                    06:8f:a1:bd:39:78:d6:7a:10:f6:ff:b9:fa:e5:b9:
                    a4:6c:ad:f5:10:e5:4c:f6:cf:a9:52:37:42:3a:04:
                    bf:3b:0e:72:5c:05:65:fd:a6:65:2e:92:6e:ca:8b:
                    f5:9b
                Exponent: 65537 (0x10001)
        X509v3 extensions:
            X509v3 Basic Constraints: 
                CA:FALSE
            Netscape Comment: 
                Easy-RSA Generated Certificate
            X509v3 Subject Key Identifier: 
                60:74:D2:12:69:0E:8F:8E:81:32:47:8A:E1:4E:48:3E:84:F4:69:B1
            X509v3 Authority Key Identifier: 
                keyid:C6:7C:3F:DA:E9:AC:6B:2F:A3:8F:26:03:15:0B:DC:65:08:51:98:9D
                DirName:/O=advancedfiltering/OU=hosts/CN=Advanced Filtering CA
                serial:8C:32:88:59:79:7B:3C:CC

            X509v3 Extended Key Usage: 
                TLS Web Client Authentication
            X509v3 Key Usage: 
                Digital Signature
    Signature Algorithm: sha256WithRSAEncryption
        35:b6:a3:97:79:f0:08:b2:67:d9:65:2f:de:f7:ee:7c:92:01:
        87:ff:fb:7e:24:41:ee:cc:53:76:73:d1:a7:d6:78:f6:54:bb:
        11:8c:1e:31:99:32:50:96:83:6b:f8:31:1e:0a:fc:3a:19:e6:
        c1:c6:93:d3:b9:b5:90:65:7d:00:e7:21:a4:b1:aa:6d:d5:71:
        6f:88:99:dd:6d:17:1d:85:65:4b:10:04:8b:43:4c:a1:c3:1f:
        6a:79:31:9f:87:70:fd:87:c6:60:92:40:29:04:1a:7b:1a:a5:
        c3:d5:56:34:24:a3:6f:d5:d3:0b:47:c2:de:0c:9d:4f:35:fc:
        b7:f2:f8:f2:91:8a:74:b8:3b:12:ff:cc:21:e0:73:38:76:7d:
        ad:e0:27:e7:ef:b3:4c:b4:db:02:c8:8d:b9:a9:81:91:85:3c:
        f7:0f:55:8b:82:54:e0:2b:81:a9:5e:d7:28:7a:66:c0:9d:6f:
        45:7d:35:e0:7b:7b:a7:94:1c:b2:59:bf:df:bc:eb:44:83:b8:
        64:a5:49:13:88:27:15:cd:7d:7e:e0:6b:29:0b:96:64:c3:e9:
        fa:c9:5e:5b:8a:2e:a1:c2:a1:03:39:42:20:a3:c8:1d:4f:ad:
        bc:59:66:cd:91:bc:d0:9f:96:88:3c:a8:74:ac:4a:37:26:83:
        3e:34:a5:bd
-----BEGIN CERTIFICATE-----
MIIEHTCCAwWgAwIBAgIBCTANBgkqhkiG9w0BAQsFADBMMRowGAYDVQQKExFhZHZh
bmNlZGZpbHRlcmluZzEOMAwGA1UECxMFaG9zdHMxHjAcBgNVBAMTFUFkdmFuY2Vk
IEZpbHRlcmluZyBDQTAeFw0xMzA0MTQxNDIwNDJaFw0yMzA0MTIxNDIwNDJaMFkx
GjAYBgNVBAoTEWFkdmFuY2VkZmlsdGVyaW5nMQ4wDAYDVQQLEwVob3N0czErMCkG
A1UEAxMiZGVwbG95Lmhvc3RzLmFkdmFuY2VkZmlsdGVyaW5nLm5ldDCCASIwDQYJ
KoZIhvcNAQEBBQADggEPADCCAQoCggEBAMCVTeSd9LRDEr3LbzFx5tWEfX4dgkDQ
TCoHUiMmwTvpyCdd15cDFxPY1tfai+M+SUqZD/B7AtLqPQEuOfRH+Xpgs1bouiDD
fZqrhEx+7EZLYnqxMg0l13blaEEh2NOsY6LFpNSGhoPN1+waVfcJuAeI11KVTuPU
a/nAW/LM8rq/B88gZnp4WONZ3H28ySn0J+an9NKJqDBPNQlDGGQWi8s/6nckcIYT
yHzyBUpjE+z0H6XVLc8ZcpyR2jQdMZqE7CoLR9tiuTmztsoKgJKd7fxgBo+hvTl4
1noQ9v+5+uW5pGyt9RDlTPbPqVI3QjoEvzsOclwFZf2mZS6SbsqL9ZsCAwEAAaOB
/DCB+TAJBgNVHRMEAjAAMC0GCWCGSAGG+EIBDQQgFh5FYXN5LVJTQSBHZW5lcmF0
ZWQgQ2VydGlmaWNhdGUwHQYDVR0OBBYEFGB00hJpDo+OgTJHiuFOSD6E9GmxMHwG
A1UdIwR1MHOAFMZ8P9rprGsvo48mAxUL3GUIUZidoVCkTjBMMRowGAYDVQQKExFh
ZHZhbmNlZGZpbHRlcmluZzEOMAwGA1UECxMFaG9zdHMxHjAcBgNVBAMTFUFkdmFu
Y2VkIEZpbHRlcmluZyBDQYIJAIwyiFl5ezzMMBMGA1UdJQQMMAoGCCsGAQUFBwMC
MAsGA1UdDwQEAwIHgDANBgkqhkiG9w0BAQsFAAOCAQEANbajl3nwCLJn2WUv3vfu
fJIBh//7fiRB7sxTdnPRp9Z49lS7EYweMZkyUJaDa/gxHgr8OhnmwcaT07m1kGV9
AOchpLGqbdVxb4iZ3W0XHYVlSxAEi0NMocMfankxn4dw/YfGYJJAKQQaexqlw9VW
NCSjb9XTC0fC3gydTzX8t/L48pGKdLg7Ev/MIeBzOHZ9reAn5++zTLTbAsiNuamB
kYU89w9Vi4JU4CuBqV7XKHpmwJ1vRX014Ht7p5Qcslm/37zrRIO4ZKVJE4gnFc19
fuBrKQuWZMPp+sleW4ouocKhAzlCIKPIHU+tvFlmzZG80J+WiDyodKxKNyaDPjSl
vQ==
-----END CERTIFICATE-----
