Certificate:
    Data:
        Version: 3 (0x2)
        Serial Number: 10 (0xa)
        Signature Algorithm: sha256WithRSAEncryption
        Issuer: O=advancedfiltering, OU=hosts, CN=Advanced Filtering CA
        Validity
            Not Before: Apr 15 13:52:07 2013 GMT
            Not After : Apr 13 13:52:07 2023 GMT
        Subject: O=advancedfiltering, OU=hosts, CN=test4
        Subject Public Key Info:
            Public Key Algorithm: rsaEncryption
            RSA Public Key: (2048 bit)
                Modulus (2048 bit):
                    00:f6:78:24:8d:c4:4a:f7:cd:0f:f7:c2:0d:57:0f:
                    2e:ba:94:78:6a:53:c5:b2:63:4e:58:94:05:97:4d:
                    4b:45:92:84:5e:7a:8e:66:c4:2a:db:25:a4:a2:4d:
                    27:bf:f7:b3:81:81:ac:81:cc:e9:fd:54:11:fb:0c:
                    a6:1d:dc:76:13:9c:99:d9:07:64:dd:d2:b3:82:eb:
                    70:7d:5c:d4:d7:1a:05:21:bf:3a:8f:56:b2:4e:bb:
                    86:d6:9f:a4:af:c7:d8:3a:55:75:04:53:74:e0:59:
                    f2:a9:96:e9:72:a4:2e:f2:26:f1:c4:cb:ee:74:d6:
                    70:0d:3f:ef:4e:4c:17:be:e7:10:3c:22:5a:e4:84:
                    d0:8d:68:b0:d5:a8:64:93:17:db:1a:10:95:7c:e2:
                    d4:56:f0:8e:91:a5:d5:a2:d6:ca:42:b3:e9:38:9b:
                    f6:60:ff:8a:33:bb:00:1a:75:4b:a5:7b:31:ad:49:
                    e8:3f:0d:9e:2b:3f:12:91:c3:d0:61:e9:85:9a:97:
                    d4:32:c0:f6:bb:93:42:3d:12:eb:29:ed:80:cf:ce:
                    d4:78:59:81:02:4c:b6:58:2e:b3:03:41:d4:1e:d0:
                    1b:33:d0:26:56:23:b1:44:d2:8e:97:12:f7:a5:0a:
                    52:46:55:1a:97:4c:ee:4a:52:af:80:9b:1b:40:58:
                    a8:09
                Exponent: 65537 (0x10001)
        X509v3 extensions:
            X509v3 Basic Constraints: 
                CA:FALSE
            X509v3 Subject Key Identifier: 
                39:CB:1A:00:9C:6F:6D:B3:08:E2:0A:02:15:7E:FB:4B:FB:BF:BF:06
            X509v3 Authority Key Identifier: 
                keyid:C6:7C:3F:DA:E9:AC:6B:2F:A3:8F:26:03:15:0B:DC:65:08:51:98:9D
                DirName:/O=advancedfiltering/OU=hosts/CN=Advanced Filtering CA
                serial:8C:32:88:59:79:7B:3C:CC

            X509v3 Extended Key Usage: 
                TLS Web Server Authentication, TLS Web Client Authentication
            X509v3 Key Usage: 
                Digital Signature, Key Encipherment
            X509v3 CRL Distribution Points: 
                URI:http://deploy.hosts.advancedfiltering.net/public/ca-af.crl

            Authority Information Access: 
                CA Issuers - URI:http://deploy.hosts.advancedfiltering.net/public/ca-af.crt

    Signature Algorithm: sha256WithRSAEncryption
        72:72:b6:5d:88:dd:b9:22:23:46:9f:49:14:50:86:7f:eb:5d:
        09:49:ef:04:09:ba:86:7e:5a:10:68:fa:b1:62:55:7a:ca:29:
        1c:09:dc:77:76:3d:41:38:31:88:97:3e:6e:61:58:68:69:82:
        51:1e:43:1c:3d:0e:fb:57:1a:61:62:7a:e9:74:9b:6e:f2:ae:
        85:5e:99:da:01:12:51:7f:0e:1a:d7:6b:52:6f:81:86:c9:84:
        2c:cb:6e:6b:36:aa:6a:33:9b:29:c1:3d:83:0f:d4:c4:74:2b:
        2a:0e:d5:39:6a:b4:3c:a2:30:27:c0:2e:05:ae:25:36:44:09:
        e0:0a:27:cf:1a:7d:a3:1a:d6:c2:da:9b:f2:2c:70:2f:86:fa:
        c4:41:d8:1d:c6:ac:21:c7:68:92:2f:b3:0f:aa:91:4a:46:ee:
        ae:31:13:c6:72:1b:46:ed:fa:5c:87:ff:ce:f6:92:02:ef:ba:
        fc:9d:58:eb:57:bb:8d:1a:33:ae:97:c5:37:de:b3:12:dc:31:
        d1:46:e7:ee:61:13:9d:11:18:27:64:4a:92:3c:c7:26:2c:20:
        78:39:9f:a0:05:39:39:6f:00:4f:4a:74:2e:48:31:b8:98:85:
        be:ce:75:07:7a:25:b0:91:6e:30:4d:46:f4:07:a1:04:9e:41:
        ea:2d:51:9e
-----BEGIN CERTIFICATE-----
MIIEgjCCA2qgAwIBAgIBCjANBgkqhkiG9w0BAQsFADBMMRowGAYDVQQKExFhZHZh
bmNlZGZpbHRlcmluZzEOMAwGA1UECxMFaG9zdHMxHjAcBgNVBAMTFUFkdmFuY2Vk
IEZpbHRlcmluZyBDQTAeFw0xMzA0MTUxMzUyMDdaFw0yMzA0MTMxMzUyMDdaMDwx
GjAYBgNVBAoTEWFkdmFuY2VkZmlsdGVyaW5nMQ4wDAYDVQQLEwVob3N0czEOMAwG
A1UEAxMFdGVzdDQwggEiMA0GCSqGSIb3DQEBAQUAA4IBDwAwggEKAoIBAQD2eCSN
xEr3zQ/3wg1XDy66lHhqU8WyY05YlAWXTUtFkoReeo5mxCrbJaSiTSe/97OBgayB
zOn9VBH7DKYd3HYTnJnZB2Td0rOC63B9XNTXGgUhvzqPVrJOu4bWn6Svx9g6VXUE
U3TgWfKplulypC7yJvHEy+501nANP+9OTBe+5xA8IlrkhNCNaLDVqGSTF9saEJV8
4tRW8I6RpdWi1spCs+k4m/Zg/4ozuwAadUulezGtSeg/DZ4rPxKRw9Bh6YWal9Qy
wPa7k0I9Eusp7YDPztR4WYECTLZYLrMDQdQe0Bsz0CZWI7FE0o6XEvelClJGVRqX
TO5KUq+AmxtAWKgJAgMBAAGjggF9MIIBeTAJBgNVHRMEAjAAMB0GA1UdDgQWBBQ5
yxoAnG9tswjiCgIVfvtL+7+/BjB8BgNVHSMEdTBzgBTGfD/a6axrL6OPJgMVC9xl
CFGYnaFQpE4wTDEaMBgGA1UEChMRYWR2YW5jZWRmaWx0ZXJpbmcxDjAMBgNVBAsT
BWhvc3RzMR4wHAYDVQQDExVBZHZhbmNlZCBGaWx0ZXJpbmcgQ0GCCQCMMohZeXs8
zDAdBgNVHSUEFjAUBggrBgEFBQcDAQYIKwYBBQUHAwIwCwYDVR0PBAQDAgWgMEsG
A1UdHwREMEIwQKA+oDyGOmh0dHA6Ly9kZXBsb3kuaG9zdHMuYWR2YW5jZWRmaWx0
ZXJpbmcubmV0L3B1YmxpYy9jYS1hZi5jcmwwVgYIKwYBBQUHAQEESjBIMEYGCCsG
AQUFBzAChjpodHRwOi8vZGVwbG95Lmhvc3RzLmFkdmFuY2VkZmlsdGVyaW5nLm5l
dC9wdWJsaWMvY2EtYWYuY3J0MA0GCSqGSIb3DQEBCwUAA4IBAQBycrZdiN25IiNG
n0kUUIZ/610JSe8ECbqGfloQaPqxYlV6yikcCdx3dj1BODGIlz5uYVhoaYJRHkMc
PQ77VxphYnrpdJtu8q6FXpnaARJRfw4a12tSb4GGyYQsy25rNqpqM5spwT2DD9TE
dCsqDtU5arQ8ojAnwC4FriU2RAngCifPGn2jGtbC2pvyLHAvhvrEQdgdxqwhx2iS
L7MPqpFKRu6uMRPGchtG7fpch//O9pIC77r8nVjrV7uNGjOul8U33rMS3DHRRufu
YROdERgnZEqSPMcmLCB4OZ+gBTk5bwBPSnQuSDG4mIW+znUHeiWwkW4wTUb0B6EE
nkHqLVGe
-----END CERTIFICATE-----
