Certificate:
    Data:
        Version: 3 (0x2)
        Serial Number: 11 (0xb)
        Signature Algorithm: sha256WithRSAEncryption
        Issuer: O=advancedfiltering, OU=hosts, CN=Advanced Filtering CA
        Validity
            Not Before: Apr 15 13:55:58 2013 GMT
            Not After : Apr 13 13:55:58 2023 GMT
        Subject: O=advancedfiltering, OU=hosts, CN=test5
        Subject Public Key Info:
            Public Key Algorithm: rsaEncryption
            RSA Public Key: (2048 bit)
                Modulus (2048 bit):
                    00:e1:59:7d:df:70:ec:78:97:5b:1d:62:60:d2:55:
                    4d:c3:88:7d:b7:f5:d5:0c:11:77:68:db:22:c9:74:
                    ec:f5:78:ec:4a:0a:e2:4d:99:ab:0b:84:33:a6:45:
                    eb:38:09:c8:8b:5c:96:7d:65:15:ac:8d:19:72:21:
                    09:c7:4c:72:31:31:5a:16:d9:61:d0:fd:ed:d6:79:
                    f9:d5:a5:53:a9:77:6f:f8:b9:d0:f0:d0:03:6e:e1:
                    0c:9b:6c:17:c5:a8:5a:4a:6d:9e:15:bf:a8:af:41:
                    25:68:f3:f5:30:f9:06:a2:50:a7:70:5b:0a:d1:08:
                    7c:e6:e7:b7:a4:f4:f4:c2:b7:91:31:fd:ad:8e:0a:
                    99:9a:cf:dc:46:23:a7:d3:0d:b8:c3:52:db:df:a0:
                    2e:91:3f:cb:74:ed:82:64:95:5c:56:ef:d6:6e:eb:
                    50:a6:4f:58:b7:20:bf:44:47:d8:38:d3:7d:7b:18:
                    d7:62:8f:cd:3e:8e:70:05:8d:81:88:85:28:a7:48:
                    bc:e7:b6:91:13:f7:a4:c0:2e:65:3e:b1:bf:6d:87:
                    fd:03:36:11:b8:1e:d7:45:3d:01:79:13:7e:be:f5:
                    33:5d:35:13:85:42:03:89:c2:5e:18:6d:14:a9:ce:
                    31:4a:25:fe:1b:d6:4b:fc:01:c9:0f:b5:2f:04:fd:
                    46:e9
                Exponent: 65537 (0x10001)
        X509v3 extensions:
            X509v3 Basic Constraints: 
                CA:FALSE
            X509v3 Subject Key Identifier: 
                80:81:30:22:D4:4F:2A:79:BE:F4:C5:7B:F4:03:B0:C0:9C:FA:63:F8
            X509v3 Authority Key Identifier: 
                keyid:C6:7C:3F:DA:E9:AC:6B:2F:A3:8F:26:03:15:0B:DC:65:08:51:98:9D
                DirName:/O=advancedfiltering/OU=hosts/CN=Advanced Filtering CA
                serial:8C:32:88:59:79:7B:3C:CC

            X509v3 Extended Key Usage: 
                TLS Web Server Authentication, TLS Web Client Authentication
            X509v3 Key Usage: 
                Digital Signature, Key Encipherment
            X509v3 CRL Distribution Points: 
                URI:http://deploy.hosts.advancedfiltering.net/public/ca-advancedfiltering.crl

            Authority Information Access: 
                CA Issuers - URI:http://deploy.hosts.advancedfiltering.net/public/ca-advancedfiltering.crt

    Signature Algorithm: sha256WithRSAEncryption
        4d:30:13:7f:33:47:8a:99:2b:82:cf:7e:9e:53:17:45:24:9d:
        ed:b9:57:f4:c4:71:d8:df:10:cc:2c:b2:be:87:3f:a4:e8:69:
        a5:5e:11:6e:2b:88:06:0e:21:4d:5f:e1:55:5a:85:cc:0a:a0:
        bd:ee:bf:bc:6d:de:bd:e2:96:79:78:c7:03:08:1d:04:2d:23:
        df:61:3d:71:51:9b:0b:75:0a:24:72:fd:3f:e7:1c:02:07:91:
        39:c0:b0:46:fb:8a:50:6c:b7:ab:7e:7d:84:88:09:85:05:22:
        ba:36:04:8a:3e:cf:94:2c:fe:8c:ef:e8:63:9c:0c:69:f5:91:
        f5:65:af:48:ea:c3:14:6d:04:23:0b:b6:a9:ad:0e:54:16:8b:
        ef:61:91:88:10:70:c7:b3:c4:ab:f6:4e:76:d2:7b:cf:39:af:
        a2:40:0d:85:b1:a6:95:cc:09:e6:3b:ee:7a:28:22:75:ab:26:
        e2:b4:25:77:73:77:a1:17:92:eb:55:cd:25:c6:eb:d3:0b:dd:
        59:de:56:fa:09:ff:3d:76:a7:48:82:a5:6a:4d:af:1c:07:c7:
        12:8f:db:98:bc:cd:de:dc:70:fd:72:7b:6e:73:45:26:22:dc:
        0e:fb:f0:e3:42:52:0a:9f:ba:7f:8d:8e:9e:43:8b:5b:57:73:
        cc:b6:d0:81
-----BEGIN CERTIFICATE-----
MIIEoDCCA4igAwIBAgIBCzANBgkqhkiG9w0BAQsFADBMMRowGAYDVQQKExFhZHZh
bmNlZGZpbHRlcmluZzEOMAwGA1UECxMFaG9zdHMxHjAcBgNVBAMTFUFkdmFuY2Vk
IEZpbHRlcmluZyBDQTAeFw0xMzA0MTUxMzU1NThaFw0yMzA0MTMxMzU1NThaMDwx
GjAYBgNVBAoTEWFkdmFuY2VkZmlsdGVyaW5nMQ4wDAYDVQQLEwVob3N0czEOMAwG
A1UEAxMFdGVzdDUwggEiMA0GCSqGSIb3DQEBAQUAA4IBDwAwggEKAoIBAQDhWX3f
cOx4l1sdYmDSVU3DiH239dUMEXdo2yLJdOz1eOxKCuJNmasLhDOmRes4CciLXJZ9
ZRWsjRlyIQnHTHIxMVoW2WHQ/e3WefnVpVOpd2/4udDw0ANu4QybbBfFqFpKbZ4V
v6ivQSVo8/Uw+QaiUKdwWwrRCHzm57ek9PTCt5Ex/a2OCpmaz9xGI6fTDbjDUtvf
oC6RP8t07YJklVxW79Zu61CmT1i3IL9ER9g40317GNdij80+jnAFjYGIhSinSLzn
tpET96TALmU+sb9th/0DNhG4HtdFPQF5E36+9TNdNROFQgOJwl4YbRSpzjFKJf4b
1kv8AckPtS8E/UbpAgMBAAGjggGbMIIBlzAJBgNVHRMEAjAAMB0GA1UdDgQWBBSA
gTAi1E8qeb70xXv0A7DAnPpj+DB8BgNVHSMEdTBzgBTGfD/a6axrL6OPJgMVC9xl
CFGYnaFQpE4wTDEaMBgGA1UEChMRYWR2YW5jZWRmaWx0ZXJpbmcxDjAMBgNVBAsT
BWhvc3RzMR4wHAYDVQQDExVBZHZhbmNlZCBGaWx0ZXJpbmcgQ0GCCQCMMohZeXs8
zDAdBgNVHSUEFjAUBggrBgEFBQcDAQYIKwYBBQUHAwIwCwYDVR0PBAQDAgWgMFoG
A1UdHwRTMFEwT6BNoEuGSWh0dHA6Ly9kZXBsb3kuaG9zdHMuYWR2YW5jZWRmaWx0
ZXJpbmcubmV0L3B1YmxpYy9jYS1hZHZhbmNlZGZpbHRlcmluZy5jcmwwZQYIKwYB
BQUHAQEEWTBXMFUGCCsGAQUFBzAChklodHRwOi8vZGVwbG95Lmhvc3RzLmFkdmFu
Y2VkZmlsdGVyaW5nLm5ldC9wdWJsaWMvY2EtYWR2YW5jZWRmaWx0ZXJpbmcuY3J0
MA0GCSqGSIb3DQEBCwUAA4IBAQBNMBN/M0eKmSuCz36eUxdFJJ3tuVf0xHHY3xDM
LLK+hz+k6GmlXhFuK4gGDiFNX+FVWoXMCqC97r+8bd694pZ5eMcDCB0ELSPfYT1x
UZsLdQokcv0/5xwCB5E5wLBG+4pQbLerfn2EiAmFBSK6NgSKPs+ULP6M7+hjnAxp
9ZH1Za9I6sMUbQQjC7aprQ5UFovvYZGIEHDHs8Sr9k520nvPOa+iQA2FsaaVzAnm
O+56KCJ1qybitCV3c3ehF5LrVc0lxuvTC91Z3lb6Cf89dqdIgqVqTa8cB8cSj9uY
vM3e3HD9cntuc0UmItwO+/DjQlIKn7p/jY6eQ4tbV3PMttCB
-----END CERTIFICATE-----
