Certificate:
    Data:
        Version: 3 (0x2)
        Serial Number: 12 (0xc)
        Signature Algorithm: sha256WithRSAEncryption
        Issuer: O=advancedfiltering, OU=hosts, CN=Advanced Filtering CA
        Validity
            Not Before: Apr 15 15:18:39 2013 GMT
            Not After : Apr 13 15:18:39 2023 GMT
        Subject: O=advancedfiltering, OU=hosts, CN=deploy.hosts.advancedfiltering.net
        Subject Public Key Info:
            Public Key Algorithm: rsaEncryption
            RSA Public Key: (2048 bit)
                Modulus (2048 bit):
                    00:d5:78:84:06:8a:89:ff:07:27:74:60:60:7b:0f:
                    64:ca:a6:6f:8b:15:94:fe:76:01:5f:10:4c:b5:68:
                    05:10:43:c9:1d:24:ea:e0:18:6f:a8:9d:63:63:e4:
                    8b:e4:b0:1a:9b:10:13:e5:f0:fa:57:cf:1f:9e:78:
                    28:16:ba:b3:0c:c2:30:4a:e3:f3:92:9a:6c:95:b6:
                    2c:1e:c7:a0:30:f8:2e:b2:8c:fa:1c:6c:dc:1f:ba:
                    9a:35:11:1a:c6:dc:af:18:1d:64:ac:71:bc:cb:70:
                    58:b8:97:b3:b1:5f:10:bb:05:e1:05:a6:85:d3:95:
                    a4:50:1c:29:49:4a:c6:79:37:85:8c:95:f8:9a:8d:
                    d3:60:26:b1:8f:18:3c:64:ce:7d:d9:6f:87:91:4d:
                    12:47:01:c2:eb:08:96:cc:bb:6f:64:b0:02:7d:c9:
                    b1:de:54:bd:b0:6b:26:50:b5:ec:7d:3e:5f:1b:60:
                    e7:52:f0:d9:42:0f:72:4b:5f:0b:17:75:56:f6:ac:
                    60:3d:8f:c9:44:80:e6:99:dd:b9:45:4c:4e:e9:51:
                    1a:79:e6:8e:d9:0e:e3:d8:19:26:52:59:31:ea:11:
                    9f:a9:5d:06:e5:8b:36:74:eb:bd:1e:47:22:06:63:
                    f4:54:24:97:3e:da:2d:9a:04:e0:c2:2f:1e:3a:f5:
                    5c:3d
                Exponent: 65537 (0x10001)
        X509v3 extensions:
            X509v3 Basic Constraints: 
                CA:FALSE
            X509v3 Subject Key Identifier: 
                C1:4D:A5:2B:50:CE:AC:84:5D:CE:52:58:59:23:E6:32:0C:AB:BE:78
            X509v3 Authority Key Identifier: 
                keyid:C6:7C:3F:DA:E9:AC:6B:2F:A3:8F:26:03:15:0B:DC:65:08:51:98:9D
                DirName:/O=advancedfiltering/OU=hosts/CN=Advanced Filtering CA
                serial:8C:32:88:59:79:7B:3C:CC

            X509v3 Extended Key Usage: 
                TLS Web Server Authentication, TLS Web Client Authentication
            X509v3 Key Usage: 
                Digital Signature, Key Encipherment
            X509v3 CRL Distribution Points: 
                URI:http://deploy.hosts.advancedfiltering.net/public/ca-advancedfiltering.crl

            Authority Information Access: 
                CA Issuers - URI:http://deploy.hosts.advancedfiltering.net/public/ca-advancedfiltering.crt

    Signature Algorithm: sha256WithRSAEncryption
        06:6a:3b:ca:5f:27:2b:b9:a9:1c:20:7f:ea:1c:12:35:b6:95:
        8e:34:95:c4:1d:38:23:56:8d:eb:cd:fd:84:2e:d0:c6:c2:ff:
        d4:79:85:a5:9c:3b:fd:3c:99:f4:25:c7:1d:5a:ee:03:9a:95:
        25:0c:48:95:bc:14:f2:a8:06:3e:89:f5:d5:93:34:58:0a:78:
        12:a6:17:81:68:b2:ce:a0:7d:fa:2e:60:e9:3b:26:70:d9:c2:
        8d:71:44:21:83:2a:1d:86:7c:fa:53:bc:79:e7:d2:fc:ad:77:
        60:00:ed:08:a0:a1:48:bd:ba:87:21:1f:75:ad:e9:fd:0f:72:
        52:d4:6b:d8:0a:08:03:75:65:5d:79:ce:3d:f1:17:05:68:9d:
        25:13:f0:00:96:8f:79:43:12:e3:52:fa:7f:48:a0:59:51:be:
        7f:26:14:7d:52:e0:78:08:92:39:a9:6a:7c:1a:67:b4:5b:09:
        dc:71:46:83:f0:2f:fb:f3:a0:9d:ef:24:00:1e:b5:e0:2d:4c:
        c5:17:36:b2:6e:53:a0:14:fb:1d:66:8b:cc:20:9f:fb:37:58:
        17:d1:22:d0:83:97:56:98:9e:a7:81:06:f3:5b:b1:db:fe:d8:
        91:21:5f:4c:0d:c7:41:9b:2b:9c:8a:4e:1c:9a:c9:99:fd:49:
        3f:64:77:05
-----BEGIN CERTIFICATE-----
MIIEvTCCA6WgAwIBAgIBDDANBgkqhkiG9w0BAQsFADBMMRowGAYDVQQKExFhZHZh
bmNlZGZpbHRlcmluZzEOMAwGA1UECxMFaG9zdHMxHjAcBgNVBAMTFUFkdmFuY2Vk
IEZpbHRlcmluZyBDQTAeFw0xMzA0MTUxNTE4MzlaFw0yMzA0MTMxNTE4MzlaMFkx
GjAYBgNVBAoTEWFkdmFuY2VkZmlsdGVyaW5nMQ4wDAYDVQQLEwVob3N0czErMCkG
A1UEAxMiZGVwbG95Lmhvc3RzLmFkdmFuY2VkZmlsdGVyaW5nLm5ldDCCASIwDQYJ
KoZIhvcNAQEBBQADggEPADCCAQoCggEBANV4hAaKif8HJ3RgYHsPZMqmb4sVlP52
AV8QTLVoBRBDyR0k6uAYb6idY2Pki+SwGpsQE+Xw+lfPH554KBa6swzCMErj85Ka
bJW2LB7HoDD4LrKM+hxs3B+6mjURGsbcrxgdZKxxvMtwWLiXs7FfELsF4QWmhdOV
pFAcKUlKxnk3hYyV+JqN02AmsY8YPGTOfdlvh5FNEkcBwusIlsy7b2SwAn3Jsd5U
vbBrJlC17H0+Xxtg51Lw2UIPcktfCxd1VvasYD2PyUSA5pnduUVMTulRGnnmjtkO
49gZJlJZMeoRn6ldBuWLNnTrvR5HIgZj9FQklz7aLZoE4MIvHjr1XD0CAwEAAaOC
AZswggGXMAkGA1UdEwQCMAAwHQYDVR0OBBYEFMFNpStQzqyEXc5SWFkj5jIMq754
MHwGA1UdIwR1MHOAFMZ8P9rprGsvo48mAxUL3GUIUZidoVCkTjBMMRowGAYDVQQK
ExFhZHZhbmNlZGZpbHRlcmluZzEOMAwGA1UECxMFaG9zdHMxHjAcBgNVBAMTFUFk
dmFuY2VkIEZpbHRlcmluZyBDQYIJAIwyiFl5ezzMMB0GA1UdJQQWMBQGCCsGAQUF
BwMBBggrBgEFBQcDAjALBgNVHQ8EBAMCBaAwWgYDVR0fBFMwUTBPoE2gS4ZJaHR0
cDovL2RlcGxveS5ob3N0cy5hZHZhbmNlZGZpbHRlcmluZy5uZXQvcHVibGljL2Nh
LWFkdmFuY2VkZmlsdGVyaW5nLmNybDBlBggrBgEFBQcBAQRZMFcwVQYIKwYBBQUH
MAKGSWh0dHA6Ly9kZXBsb3kuaG9zdHMuYWR2YW5jZWRmaWx0ZXJpbmcubmV0L3B1
YmxpYy9jYS1hZHZhbmNlZGZpbHRlcmluZy5jcnQwDQYJKoZIhvcNAQELBQADggEB
AAZqO8pfJyu5qRwgf+ocEjW2lY40lcQdOCNWjevN/YQu0MbC/9R5haWcO/08mfQl
xx1a7gOalSUMSJW8FPKoBj6J9dWTNFgKeBKmF4Foss6gffouYOk7JnDZwo1xRCGD
Kh2GfPpTvHnn0vytd2AA7QigoUi9uochH3Wt6f0PclLUa9gKCAN1ZV15zj3xFwVo
nSUT8ACWj3lDEuNS+n9IoFlRvn8mFH1S4HgIkjmpanwaZ7RbCdxxRoPwL/vzoJ3v
JAAeteAtTMUXNrJuU6AU+x1mi8wgn/s3WBfRItCDl1aYnqeBBvNbsdv+2JEhX0wN
x0GbK5yKThyayZn9ST9kdwU=
-----END CERTIFICATE-----
