Certificate:
    Data:
        Version: 3 (0x2)
        Serial Number: 13 (0xd)
        Signature Algorithm: sha256WithRSAEncryption
        Issuer: O=advancedfiltering, OU=hosts, CN=Advanced Filtering CA
        Validity
            Not Before: Apr 15 15:18:46 2013 GMT
            Not After : Apr 13 15:18:46 2023 GMT
        Subject: O=advancedfiltering, OU=hosts, CN=h01.hosts.advancedfiltering.net
        Subject Public Key Info:
            Public Key Algorithm: rsaEncryption
            RSA Public Key: (2048 bit)
                Modulus (2048 bit):
                    00:d5:cc:d6:ab:9b:3d:0b:e0:a2:62:8a:04:47:64:
                    25:a4:bf:12:e4:f1:2e:b7:c3:22:6b:22:86:98:f4:
                    f7:09:9d:f9:71:7f:94:97:a6:9b:e3:e4:a0:45:2a:
                    35:70:b4:43:e0:c0:9c:ba:9b:7e:48:88:fe:5e:89:
                    b1:e8:44:0a:cd:50:06:ab:09:68:ba:5d:72:41:62:
                    11:7e:02:c9:1c:a0:91:09:e4:8e:db:ce:ee:ce:7c:
                    f5:22:c5:09:8c:af:f9:51:88:da:fc:50:56:b9:3f:
                    28:6f:7a:8e:2c:80:ad:cc:bc:ac:37:ee:80:56:8b:
                    8b:8a:c5:03:b1:99:21:48:3b:cd:b7:a7:a5:5b:c4:
                    5c:e3:62:f4:0b:f5:c0:86:54:62:5a:c2:d9:7f:2b:
                    95:b2:a6:31:32:a7:f2:07:e9:05:d1:c5:0a:2c:17:
                    b2:45:de:d2:bc:62:9c:c8:7b:94:93:b9:23:72:cd:
                    16:b1:ec:1c:da:7e:79:c5:c6:c6:d1:66:98:e6:0e:
                    92:74:d1:72:35:ce:c7:b9:c6:79:32:8a:c6:b4:cb:
                    28:54:af:33:d4:f5:ed:64:09:e5:4c:83:1d:5a:5c:
                    8e:19:ff:2d:45:c8:49:db:db:fe:91:77:a7:d7:bf:
                    06:2f:ca:de:47:43:cc:6b:87:fb:8e:00:12:7c:28:
                    80:e5
                Exponent: 65537 (0x10001)
        X509v3 extensions:
            X509v3 Basic Constraints: 
                CA:FALSE
            X509v3 Subject Key Identifier: 
                2D:38:4A:74:1A:52:FF:4B:8E:D4:0E:94:44:79:EF:C4:85:A4:2D:11
            X509v3 Authority Key Identifier: 
                keyid:C6:7C:3F:DA:E9:AC:6B:2F:A3:8F:26:03:15:0B:DC:65:08:51:98:9D
                DirName:/O=advancedfiltering/OU=hosts/CN=Advanced Filtering CA
                serial:8C:32:88:59:79:7B:3C:CC

            X509v3 Extended Key Usage: 
                TLS Web Server Authentication, TLS Web Client Authentication
            X509v3 Key Usage: 
                Digital Signature, Key Encipherment
            X509v3 CRL Distribution Points: 
                URI:http://deploy.hosts.advancedfiltering.net/public/ca-advancedfiltering.crl

            Authority Information Access: 
                CA Issuers - URI:http://deploy.hosts.advancedfiltering.net/public/ca-advancedfiltering.crt

    Signature Algorithm: sha256WithRSAEncryption
        8d:54:c1:2e:da:89:b0:7a:b5:4c:26:33:43:ac:d6:df:ad:86:
        5d:f6:a7:05:eb:81:a8:49:69:e8:60:a3:9f:bb:e6:33:94:f6:
        b4:6e:52:85:4b:e6:c0:51:30:a3:72:14:bb:e3:8e:73:d8:78:
        5a:e1:47:75:b8:d6:81:0b:98:1e:93:d3:e7:ac:4a:02:41:e3:
        a8:80:47:fd:f5:b1:80:eb:dc:69:f3:eb:b6:f5:1a:39:66:0d:
        9b:2f:18:9c:96:88:b5:e3:5c:8b:64:80:50:47:8a:d7:32:60:
        16:57:73:d1:04:7f:4b:da:54:00:c6:ac:f9:f0:3e:a2:ba:82:
        ba:58:01:10:ef:3b:d3:e4:c3:c3:e6:18:e6:9b:d5:40:73:3b:
        8d:8b:15:b4:66:40:ea:f0:2a:28:f3:c8:55:3e:84:2b:0d:ef:
        c8:2e:2e:19:bf:1a:3b:00:31:4c:37:89:17:f2:ff:03:24:e9:
        66:81:4a:e1:a1:a2:87:1b:23:86:5c:ec:82:ed:81:5a:27:08:
        bd:74:a1:ae:71:b7:aa:5b:a5:2a:9a:e1:fe:1c:a5:32:48:1d:
        41:7b:30:e3:c9:cf:32:ba:70:9f:67:c1:11:bf:80:95:c4:ef:
        f5:56:73:60:7a:9f:0d:9e:99:d7:38:ba:db:06:45:75:69:d0:
        06:46:77:da
-----BEGIN CERTIFICATE-----
MIIEujCCA6KgAwIBAgIBDTANBgkqhkiG9w0BAQsFADBMMRowGAYDVQQKExFhZHZh
bmNlZGZpbHRlcmluZzEOMAwGA1UECxMFaG9zdHMxHjAcBgNVBAMTFUFkdmFuY2Vk
IEZpbHRlcmluZyBDQTAeFw0xMzA0MTUxNTE4NDZaFw0yMzA0MTMxNTE4NDZaMFYx
GjAYBgNVBAoTEWFkdmFuY2VkZmlsdGVyaW5nMQ4wDAYDVQQLEwVob3N0czEoMCYG
A1UEAxMfaDAxLmhvc3RzLmFkdmFuY2VkZmlsdGVyaW5nLm5ldDCCASIwDQYJKoZI
hvcNAQEBBQADggEPADCCAQoCggEBANXM1qubPQvgomKKBEdkJaS/EuTxLrfDImsi
hpj09wmd+XF/lJemm+PkoEUqNXC0Q+DAnLqbfkiI/l6JsehECs1QBqsJaLpdckFi
EX4CyRygkQnkjtvO7s589SLFCYyv+VGI2vxQVrk/KG96jiyArcy8rDfugFaLi4rF
A7GZIUg7zbenpVvEXONi9Av1wIZUYlrC2X8rlbKmMTKn8gfpBdHFCiwXskXe0rxi
nMh7lJO5I3LNFrHsHNp+ecXGxtFmmOYOknTRcjXOx7nGeTKKxrTLKFSvM9T17WQJ
5UyDHVpcjhn/LUXISdvb/pF3p9e/Bi/K3kdDzGuH+44AEnwogOUCAwEAAaOCAZsw
ggGXMAkGA1UdEwQCMAAwHQYDVR0OBBYEFC04SnQaUv9LjtQOlER578SFpC0RMHwG
A1UdIwR1MHOAFMZ8P9rprGsvo48mAxUL3GUIUZidoVCkTjBMMRowGAYDVQQKExFh
ZHZhbmNlZGZpbHRlcmluZzEOMAwGA1UECxMFaG9zdHMxHjAcBgNVBAMTFUFkdmFu
Y2VkIEZpbHRlcmluZyBDQYIJAIwyiFl5ezzMMB0GA1UdJQQWMBQGCCsGAQUFBwMB
BggrBgEFBQcDAjALBgNVHQ8EBAMCBaAwWgYDVR0fBFMwUTBPoE2gS4ZJaHR0cDov
L2RlcGxveS5ob3N0cy5hZHZhbmNlZGZpbHRlcmluZy5uZXQvcHVibGljL2NhLWFk
dmFuY2VkZmlsdGVyaW5nLmNybDBlBggrBgEFBQcBAQRZMFcwVQYIKwYBBQUHMAKG
SWh0dHA6Ly9kZXBsb3kuaG9zdHMuYWR2YW5jZWRmaWx0ZXJpbmcubmV0L3B1Ymxp
Yy9jYS1hZHZhbmNlZGZpbHRlcmluZy5jcnQwDQYJKoZIhvcNAQELBQADggEBAI1U
wS7aibB6tUwmM0Os1t+thl32pwXrgahJaehgo5+75jOU9rRuUoVL5sBRMKNyFLvj
jnPYeFrhR3W41oELmB6T0+esSgJB46iAR/31sYDr3Gnz67b1GjlmDZsvGJyWiLXj
XItkgFBHitcyYBZXc9EEf0vaVADGrPnwPqK6grpYARDvO9Pkw8PmGOab1UBzO42L
FbRmQOrwKijzyFU+hCsN78guLhm/GjsAMUw3iRfy/wMk6WaBSuGhoocbI4Zc7ILt
gVonCL10oa5xt6pbpSqa4f4cpTJIHUF7MOPJzzK6cJ9nwRG/gJXE7/VWc2B6nw2e
mdc4utsGRXVp0AZGd9o=
-----END CERTIFICATE-----
