Certificate:
    Data:
        Version: 3 (0x2)
        Serial Number: 14 (0xe)
        Signature Algorithm: sha256WithRSAEncryption
        Issuer: O=advancedfiltering, OU=hosts, CN=Advanced Filtering CA
        Validity
            Not Before: Apr 15 15:18:51 2013 GMT
            Not After : Apr 13 15:18:51 2023 GMT
        Subject: O=advancedfiltering, OU=hosts, CN=h02.hosts.advancedfiltering.net
        Subject Public Key Info:
            Public Key Algorithm: rsaEncryption
            RSA Public Key: (2048 bit)
                Modulus (2048 bit):
                    00:c3:3e:37:8e:30:44:0e:5d:d4:33:db:44:fc:c6:
                    34:7e:5a:20:42:68:3f:d5:1c:23:14:46:18:92:d7:
                    59:82:fe:1e:39:e0:1d:40:80:69:29:e0:5c:71:20:
                    7d:e8:f7:87:53:d5:95:16:81:2f:7a:3e:47:56:fe:
                    02:1d:66:39:2b:ba:23:0d:d9:9d:3f:e7:05:22:75:
                    b1:af:a0:74:df:a3:38:25:bd:52:19:58:69:24:a1:
                    e0:bb:12:44:9d:c2:e1:f5:74:8c:63:13:28:e5:1e:
                    c7:a5:22:e8:b0:4a:44:49:ad:0c:96:66:4a:db:7e:
                    bb:89:e4:33:8b:e0:6b:36:ec:36:f0:d5:69:3f:cc:
                    52:5b:fe:4b:fc:4c:0e:68:ff:6c:ff:d0:c3:3e:c3:
                    46:4d:56:de:85:b0:d8:7c:38:28:67:82:5c:dc:96:
                    01:74:c4:ad:a4:11:c7:17:63:7d:04:20:9e:89:09:
                    b6:8b:26:10:04:86:59:5a:fc:3f:30:ba:b8:a7:eb:
                    d7:6e:9d:29:ee:97:c5:1f:5c:f4:51:21:36:6f:fd:
                    cf:72:a6:c9:c9:05:70:49:ce:b3:ed:de:56:34:7a:
                    1e:28:f3:7a:c3:e7:fb:02:93:76:ed:8f:27:26:d8:
                    61:37:c1:ff:f1:27:d8:b1:1a:c7:dd:ce:da:e5:1c:
                    25:63
                Exponent: 65537 (0x10001)
        X509v3 extensions:
            X509v3 Basic Constraints: 
                CA:FALSE
            X509v3 Subject Key Identifier: 
                62:79:05:39:B0:31:F9:46:50:8B:32:21:DA:16:0A:3D:C3:CA:AF:EC
            X509v3 Authority Key Identifier: 
                keyid:C6:7C:3F:DA:E9:AC:6B:2F:A3:8F:26:03:15:0B:DC:65:08:51:98:9D
                DirName:/O=advancedfiltering/OU=hosts/CN=Advanced Filtering CA
                serial:8C:32:88:59:79:7B:3C:CC

            X509v3 Extended Key Usage: 
                TLS Web Server Authentication, TLS Web Client Authentication
            X509v3 Key Usage: 
                Digital Signature, Key Encipherment
            X509v3 CRL Distribution Points: 
                URI:http://deploy.hosts.advancedfiltering.net/public/ca-advancedfiltering.crl

            Authority Information Access: 
                CA Issuers - URI:http://deploy.hosts.advancedfiltering.net/public/ca-advancedfiltering.crt

    Signature Algorithm: sha256WithRSAEncryption
        aa:31:51:45:85:42:ca:fd:dd:ab:30:fc:be:0e:92:69:aa:ed:
        f2:4e:46:e5:0e:24:82:86:61:12:b1:44:72:3d:bc:47:ba:79:
        cc:f5:22:90:f4:2e:5b:f3:e0:f6:fd:ce:f6:ac:6f:3f:aa:e0:
        3c:a1:ae:db:f4:d6:27:af:24:76:66:ef:eb:f8:bb:9f:bd:06:
        09:a0:03:e8:6e:ef:e3:d7:05:d3:27:2b:b6:f9:0b:2c:48:28:
        03:71:46:20:bb:8e:4b:f9:f6:9e:8b:a5:0b:97:23:0f:75:0e:
        0b:2e:3c:54:30:ba:e4:9c:6a:2f:cf:77:71:c1:22:f7:2e:02:
        fd:f9:26:eb:1f:d2:f0:73:5f:10:86:d5:63:27:47:7b:59:2c:
        d7:4a:b4:33:c1:8a:74:ed:73:24:27:9c:a0:c4:ad:70:29:05:
        64:dd:07:27:d1:40:b2:ca:8b:86:8b:0e:e0:4e:99:28:5b:1f:
        3c:28:a8:1b:0f:17:d9:51:60:6a:2c:82:5e:dd:81:de:02:8c:
        42:5b:93:a6:13:7a:26:19:5b:84:d1:cb:54:d5:a2:c9:1c:64:
        66:aa:49:cf:17:3e:9f:5b:1c:98:d1:dd:ca:92:52:00:83:9f:
        27:0a:d9:ad:f3:ea:26:ac:80:29:42:72:d3:03:3f:7a:d6:4e:
        68:ef:36:1e
-----BEGIN CERTIFICATE-----
MIIEujCCA6KgAwIBAgIBDjANBgkqhkiG9w0BAQsFADBMMRowGAYDVQQKExFhZHZh
bmNlZGZpbHRlcmluZzEOMAwGA1UECxMFaG9zdHMxHjAcBgNVBAMTFUFkdmFuY2Vk
IEZpbHRlcmluZyBDQTAeFw0xMzA0MTUxNTE4NTFaFw0yMzA0MTMxNTE4NTFaMFYx
GjAYBgNVBAoTEWFkdmFuY2VkZmlsdGVyaW5nMQ4wDAYDVQQLEwVob3N0czEoMCYG
A1UEAxMfaDAyLmhvc3RzLmFkdmFuY2VkZmlsdGVyaW5nLm5ldDCCASIwDQYJKoZI
hvcNAQEBBQADggEPADCCAQoCggEBAMM+N44wRA5d1DPbRPzGNH5aIEJoP9UcIxRG
GJLXWYL+HjngHUCAaSngXHEgfej3h1PVlRaBL3o+R1b+Ah1mOSu6Iw3ZnT/nBSJ1
sa+gdN+jOCW9UhlYaSSh4LsSRJ3C4fV0jGMTKOUex6Ui6LBKREmtDJZmStt+u4nk
M4vgazbsNvDVaT/MUlv+S/xMDmj/bP/Qwz7DRk1W3oWw2Hw4KGeCXNyWAXTEraQR
xxdjfQQgnokJtosmEASGWVr8PzC6uKfr126dKe6XxR9c9FEhNm/9z3KmyckFcEnO
s+3eVjR6HijzesPn+wKTdu2PJybYYTfB//En2LEax93O2uUcJWMCAwEAAaOCAZsw
ggGXMAkGA1UdEwQCMAAwHQYDVR0OBBYEFGJ5BTmwMflGUIsyIdoWCj3Dyq/sMHwG
A1UdIwR1MHOAFMZ8P9rprGsvo48mAxUL3GUIUZidoVCkTjBMMRowGAYDVQQKExFh
ZHZhbmNlZGZpbHRlcmluZzEOMAwGA1UECxMFaG9zdHMxHjAcBgNVBAMTFUFkdmFu
Y2VkIEZpbHRlcmluZyBDQYIJAIwyiFl5ezzMMB0GA1UdJQQWMBQGCCsGAQUFBwMB
BggrBgEFBQcDAjALBgNVHQ8EBAMCBaAwWgYDVR0fBFMwUTBPoE2gS4ZJaHR0cDov
L2RlcGxveS5ob3N0cy5hZHZhbmNlZGZpbHRlcmluZy5uZXQvcHVibGljL2NhLWFk
dmFuY2VkZmlsdGVyaW5nLmNybDBlBggrBgEFBQcBAQRZMFcwVQYIKwYBBQUHMAKG
SWh0dHA6Ly9kZXBsb3kuaG9zdHMuYWR2YW5jZWRmaWx0ZXJpbmcubmV0L3B1Ymxp
Yy9jYS1hZHZhbmNlZGZpbHRlcmluZy5jcnQwDQYJKoZIhvcNAQELBQADggEBAKox
UUWFQsr93asw/L4Okmmq7fJORuUOJIKGYRKxRHI9vEe6ecz1IpD0Llvz4Pb9zvas
bz+q4Dyhrtv01ievJHZm7+v4u5+9BgmgA+hu7+PXBdMnK7b5CyxIKANxRiC7jkv5
9p6LpQuXIw91DgsuPFQwuuScai/Pd3HBIvcuAv35Jusf0vBzXxCG1WMnR3tZLNdK
tDPBinTtcyQnnKDErXApBWTdByfRQLLKi4aLDuBOmShbHzwoqBsPF9lRYGosgl7d
gd4CjEJbk6YTeiYZW4TRy1TVoskcZGaqSc8XPp9bHJjR3cqSUgCDnycK2a3z6ias
gClCctMDP3rWTmjvNh4=
-----END CERTIFICATE-----
