Certificate:
    Data:
        Version: 3 (0x2)
        Serial Number: 15 (0xf)
        Signature Algorithm: sha256WithRSAEncryption
        Issuer: O=advancedfiltering, OU=hosts, CN=Advanced Filtering CA
        Validity
            Not Before: Apr 16 11:00:37 2013 GMT
            Not After : Apr 14 11:00:37 2023 GMT
        Subject: O=advancedfiltering, OU=hosts, CN=smtp.services.advancedfiltering.net
        Subject Public Key Info:
            Public Key Algorithm: rsaEncryption
            RSA Public Key: (2048 bit)
                Modulus (2048 bit):
                    00:d2:94:7b:4f:4d:ec:57:49:d4:6d:36:00:ff:1a:
                    81:cf:de:55:19:a9:21:d1:82:cd:06:0a:27:ed:b1:
                    68:13:b2:f4:08:56:87:72:f0:21:6a:ba:25:22:4a:
                    11:c2:f4:09:fb:01:cd:8b:bc:a8:05:ff:da:9a:7f:
                    2a:b7:a7:08:be:fe:dd:c2:f2:56:7c:98:48:6f:ae:
                    3a:20:79:05:4c:87:b4:1d:e1:7f:93:65:15:e1:2c:
                    e8:ff:ed:99:33:ce:b7:c6:94:43:8f:45:7c:b6:98:
                    8a:6c:ea:0b:4a:83:5f:41:70:b3:94:22:be:e9:f2:
                    8f:0d:85:70:c0:7e:aa:03:d3:79:0d:85:65:c4:31:
                    07:0f:d8:aa:87:53:a0:ad:3d:fd:ef:be:2c:53:f3:
                    9c:bf:6e:cf:62:5b:e4:e5:4b:be:c4:9f:65:f3:fe:
                    40:22:1a:c7:60:ab:4d:9a:06:1a:3e:0a:81:66:a4:
                    bc:61:a6:de:71:ea:a3:bb:35:6d:34:2a:16:8d:10:
                    3f:3b:81:0a:1c:c0:aa:77:14:c1:7f:c3:19:be:da:
                    19:1d:71:bb:11:af:97:f2:f5:9d:4a:af:9d:e6:d1:
                    38:b0:cb:20:25:26:dd:ed:88:22:26:0c:a8:d4:e2:
                    b4:ef:29:4c:64:bc:32:d7:03:fa:91:62:a5:79:ff:
                    2b:5d
                Exponent: 65537 (0x10001)
        X509v3 extensions:
            X509v3 Basic Constraints: 
                CA:FALSE
            X509v3 Subject Key Identifier: 
                5A:61:F5:9C:3C:F8:CA:60:70:3B:F3:16:E5:31:51:59:72:D8:A9:6F
            X509v3 Authority Key Identifier: 
                keyid:C6:7C:3F:DA:E9:AC:6B:2F:A3:8F:26:03:15:0B:DC:65:08:51:98:9D
                DirName:/O=advancedfiltering/OU=hosts/CN=Advanced Filtering CA
                serial:8C:32:88:59:79:7B:3C:CC

            X509v3 Extended Key Usage: 
                TLS Web Server Authentication, TLS Web Client Authentication
            X509v3 Key Usage: 
                Digital Signature, Key Encipherment
            X509v3 CRL Distribution Points: 
                URI:http://deploy.hosts.advancedfiltering.net/public/ca-advancedfiltering.crl

            Authority Information Access: 
                CA Issuers - URI:http://deploy.hosts.advancedfiltering.net/public/ca-advancedfiltering.crt

    Signature Algorithm: sha256WithRSAEncryption
        1b:51:e5:bc:7e:d6:13:a7:ae:45:f7:09:5b:fa:de:8e:5f:be:
        ac:3e:9b:73:49:b3:dd:83:39:d3:b0:64:c1:e2:0d:af:d5:76:
        4c:88:fc:62:d5:77:0b:55:c4:1e:dd:7f:26:1f:05:1c:cd:47:
        39:90:4f:f3:8f:82:6c:08:0d:0d:90:fa:5f:fd:2c:87:a7:14:
        2b:b1:53:17:a5:96:da:92:1c:e1:ab:ad:b0:1a:bb:42:07:54:
        bd:6f:45:c1:f2:a0:80:2d:42:63:38:a9:dc:9c:36:56:c9:3b:
        cf:72:0a:0e:3d:20:43:7e:cd:28:14:c5:49:d2:22:ec:f6:02:
        e4:d2:d6:c1:84:2a:6d:9c:5b:2e:e5:01:ca:05:c0:69:d5:fa:
        09:30:d9:14:1b:3a:9a:1c:0e:f8:3c:70:f7:61:f1:3a:06:40:
        ee:7a:fd:de:c6:2d:f8:06:5a:ae:f4:61:2b:9d:84:97:56:18:
        eb:22:db:e7:a8:ad:4c:7d:e8:3f:1b:5e:85:ca:f7:3a:b5:8d:
        6d:dd:5e:31:c7:71:11:44:9f:f1:68:82:68:49:2f:77:df:68:
        6e:b9:d8:e9:48:14:b3:e8:af:13:1d:43:89:1c:07:cf:b0:ca:
        17:b8:91:c1:62:6f:8b:be:2a:1b:b7:19:f0:73:b6:4c:09:00:
        da:67:d2:66
-----BEGIN CERTIFICATE-----
MIIEvjCCA6agAwIBAgIBDzANBgkqhkiG9w0BAQsFADBMMRowGAYDVQQKExFhZHZh
bmNlZGZpbHRlcmluZzEOMAwGA1UECxMFaG9zdHMxHjAcBgNVBAMTFUFkdmFuY2Vk
IEZpbHRlcmluZyBDQTAeFw0xMzA0MTYxMTAwMzdaFw0yMzA0MTQxMTAwMzdaMFox
GjAYBgNVBAoTEWFkdmFuY2VkZmlsdGVyaW5nMQ4wDAYDVQQLEwVob3N0czEsMCoG
A1UEAxMjc210cC5zZXJ2aWNlcy5hZHZhbmNlZGZpbHRlcmluZy5uZXQwggEiMA0G
CSqGSIb3DQEBAQUAA4IBDwAwggEKAoIBAQDSlHtPTexXSdRtNgD/GoHP3lUZqSHR
gs0GCiftsWgTsvQIVody8CFquiUiShHC9An7Ac2LvKgF/9qafyq3pwi+/t3C8lZ8
mEhvrjogeQVMh7Qd4X+TZRXhLOj/7ZkzzrfGlEOPRXy2mIps6gtKg19BcLOUIr7p
8o8NhXDAfqoD03kNhWXEMQcP2KqHU6CtPf3vvixT85y/bs9iW+TlS77En2Xz/kAi
Gsdgq02aBho+CoFmpLxhpt5x6qO7NW00KhaNED87gQocwKp3FMF/wxm+2hkdcbsR
r5fy9Z1Kr53m0TiwyyAlJt3tiCImDKjU4rTvKUxkvDLXA/qRYqV5/ytdAgMBAAGj
ggGbMIIBlzAJBgNVHRMEAjAAMB0GA1UdDgQWBBRaYfWcPPjKYHA78xblMVFZctip
bzB8BgNVHSMEdTBzgBTGfD/a6axrL6OPJgMVC9xlCFGYnaFQpE4wTDEaMBgGA1UE
ChMRYWR2YW5jZWRmaWx0ZXJpbmcxDjAMBgNVBAsTBWhvc3RzMR4wHAYDVQQDExVB
ZHZhbmNlZCBGaWx0ZXJpbmcgQ0GCCQCMMohZeXs8zDAdBgNVHSUEFjAUBggrBgEF
BQcDAQYIKwYBBQUHAwIwCwYDVR0PBAQDAgWgMFoGA1UdHwRTMFEwT6BNoEuGSWh0
dHA6Ly9kZXBsb3kuaG9zdHMuYWR2YW5jZWRmaWx0ZXJpbmcubmV0L3B1YmxpYy9j
YS1hZHZhbmNlZGZpbHRlcmluZy5jcmwwZQYIKwYBBQUHAQEEWTBXMFUGCCsGAQUF
BzAChklodHRwOi8vZGVwbG95Lmhvc3RzLmFkdmFuY2VkZmlsdGVyaW5nLm5ldC9w
dWJsaWMvY2EtYWR2YW5jZWRmaWx0ZXJpbmcuY3J0MA0GCSqGSIb3DQEBCwUAA4IB
AQAbUeW8ftYTp65F9wlb+t6OX76sPptzSbPdgznTsGTB4g2v1XZMiPxi1XcLVcQe
3X8mHwUczUc5kE/zj4JsCA0NkPpf/SyHpxQrsVMXpZbakhzhq62wGrtCB1S9b0XB
8qCALUJjOKncnDZWyTvPcgoOPSBDfs0oFMVJ0iLs9gLk0tbBhCptnFsu5QHKBcBp
1foJMNkUGzqaHA74PHD3YfE6BkDuev3exi34Blqu9GErnYSXVhjrItvnqK1Mfeg/
G16Fyvc6tY1t3V4xx3ERRJ/xaIJoSS9332huudjpSBSz6K8THUOJHAfPsMoXuJHB
Ym+Lviobtxnwc7ZMCQDaZ9Jm
-----END CERTIFICATE-----
