Certificate:
    Data:
        Version: 3 (0x2)
        Serial Number: 17 (0x11)
        Signature Algorithm: sha256WithRSAEncryption
        Issuer: O=advancedfiltering, OU=hosts, CN=Advanced Filtering CA
        Validity
            Not Before: May 29 09:24:59 2013 GMT
            Not After : May 27 09:24:59 2023 GMT
        Subject: O=advancedfiltering, OU=hosts, CN=test2.hosts.advancedfiltering.net
        Subject Public Key Info:
            Public Key Algorithm: rsaEncryption
            RSA Public Key: (2048 bit)
                Modulus (2048 bit):
                    00:b5:9d:3f:c1:ea:9a:9b:2e:98:7e:52:a9:9e:dd:
                    2e:7e:cc:c7:94:33:05:cb:6b:cb:14:74:b9:48:e2:
                    6e:bb:c8:36:7a:b3:9b:bf:e3:bd:79:20:d5:ec:5b:
                    5b:4d:f0:4f:3b:45:d7:3b:d2:2d:95:7a:b9:fc:b9:
                    a2:94:bd:b5:bd:c4:a2:68:ad:ba:b0:b5:17:7d:8f:
                    9e:d2:43:b0:a2:12:b9:42:af:48:bb:0c:57:bd:dc:
                    20:22:b6:22:d5:0c:9c:fe:57:25:2a:de:24:2c:0c:
                    23:dd:bf:56:a3:3d:1c:95:76:d8:4f:27:a3:d5:f0:
                    4f:3d:58:49:c3:25:67:58:7c:4f:30:10:d9:85:2b:
                    f1:75:c9:f8:4f:7f:1d:7e:3f:63:ee:79:72:81:05:
                    d3:41:28:e2:5d:0c:6e:0e:fa:f1:d7:97:58:4b:f3:
                    78:32:61:a9:67:cd:48:7b:3a:e6:c8:c6:7b:b4:42:
                    98:6c:97:da:bb:69:63:81:3b:f4:9d:8c:eb:b7:5f:
                    dc:63:42:e1:37:77:bd:b3:e1:6a:58:dc:62:d5:04:
                    8a:6a:b7:f5:ed:16:60:8f:c2:f0:f1:05:d7:40:de:
                    91:e9:e6:bc:4e:2b:41:15:cb:34:c3:31:8a:38:8d:
                    dc:63:a8:fc:2a:7e:ee:76:b8:4f:8e:22:9a:66:8b:
                    23:61
                Exponent: 65537 (0x10001)
        X509v3 extensions:
            X509v3 Basic Constraints: 
                CA:FALSE
            X509v3 Subject Key Identifier: 
                AD:D3:18:1D:3F:68:40:B2:E7:77:35:B3:18:7F:2E:B2:E8:80:82:71
            X509v3 Authority Key Identifier: 
                keyid:C6:7C:3F:DA:E9:AC:6B:2F:A3:8F:26:03:15:0B:DC:65:08:51:98:9D
                DirName:/O=advancedfiltering/OU=hosts/CN=Advanced Filtering CA
                serial:8C:32:88:59:79:7B:3C:CC

            X509v3 Extended Key Usage: 
                TLS Web Client Authentication
            X509v3 Key Usage: 
                Digital Signature
    Signature Algorithm: sha256WithRSAEncryption
        12:45:cd:17:8c:f1:5f:57:c8:1f:93:be:4a:d2:b1:d3:3f:b7:
        94:3b:c3:54:4f:27:6d:6e:06:b0:81:b8:22:74:17:f5:cb:60:
        85:fa:37:55:38:ca:cf:56:15:de:71:af:39:a9:e9:22:75:4d:
        fc:94:a6:4e:5e:9a:3e:ce:fa:33:04:ab:91:de:5b:ef:6e:35:
        eb:a9:b4:e7:e0:94:3f:a8:1e:59:52:87:13:3e:5b:1e:d5:c9:
        16:89:84:b1:b3:2b:56:a4:7d:8d:4a:ae:70:bc:20:88:70:8e:
        a8:98:be:63:cf:83:01:eb:e6:19:bd:15:a7:36:db:0d:83:62:
        9c:ac:7a:9f:ae:dc:b4:bb:7b:02:ab:c2:e4:65:7b:1c:d0:a9:
        30:cc:f6:d3:c9:44:bf:f7:ce:9c:4d:33:0e:e7:9f:26:90:02:
        db:dd:c1:48:61:26:6a:47:43:af:16:de:51:81:8a:7c:26:02:
        cb:fa:27:95:34:6e:26:93:64:3f:fc:f0:68:2f:f5:ff:84:d1:
        28:6f:c9:a3:40:64:66:0b:c3:e6:77:71:17:fa:09:df:fa:3b:
        4c:9d:52:93:3f:0f:39:4a:20:97:ad:2c:73:b3:49:36:3a:0c:
        6d:28:ab:f8:62:f2:65:39:f7:fd:e4:f7:80:1e:98:75:6f:14:
        6b:5a:0a:0b
-----BEGIN CERTIFICATE-----
MIID7TCCAtWgAwIBAgIBETANBgkqhkiG9w0BAQsFADBMMRowGAYDVQQKExFhZHZh
bmNlZGZpbHRlcmluZzEOMAwGA1UECxMFaG9zdHMxHjAcBgNVBAMTFUFkdmFuY2Vk
IEZpbHRlcmluZyBDQTAeFw0xMzA1MjkwOTI0NTlaFw0yMzA1MjcwOTI0NTlaMFgx
GjAYBgNVBAoTEWFkdmFuY2VkZmlsdGVyaW5nMQ4wDAYDVQQLEwVob3N0czEqMCgG
A1UEAxMhdGVzdDIuaG9zdHMuYWR2YW5jZWRmaWx0ZXJpbmcubmV0MIIBIjANBgkq
hkiG9w0BAQEFAAOCAQ8AMIIBCgKCAQEAtZ0/weqamy6YflKpnt0ufszHlDMFy2vL
FHS5SOJuu8g2erObv+O9eSDV7FtbTfBPO0XXO9ItlXq5/LmilL21vcSiaK26sLUX
fY+e0kOwohK5Qq9IuwxXvdwgIrYi1Qyc/lclKt4kLAwj3b9Woz0clXbYTyej1fBP
PVhJwyVnWHxPMBDZhSvxdcn4T38dfj9j7nlygQXTQSjiXQxuDvrx15dYS/N4MmGp
Z81IezrmyMZ7tEKYbJfau2ljgTv0nYzrt1/cY0LhN3e9s+FqWNxi1QSKarf17RZg
j8Lw8QXXQN6R6ea8TitBFcs0wzGKOI3cY6j8Kn7udrhPjiKaZosjYQIDAQABo4HN
MIHKMAkGA1UdEwQCMAAwHQYDVR0OBBYEFK3TGB0/aECy53c1sxh/LrLogIJxMHwG
A1UdIwR1MHOAFMZ8P9rprGsvo48mAxUL3GUIUZidoVCkTjBMMRowGAYDVQQKExFh
ZHZhbmNlZGZpbHRlcmluZzEOMAwGA1UECxMFaG9zdHMxHjAcBgNVBAMTFUFkdmFu
Y2VkIEZpbHRlcmluZyBDQYIJAIwyiFl5ezzMMBMGA1UdJQQMMAoGCCsGAQUFBwMC
MAsGA1UdDwQEAwIHgDANBgkqhkiG9w0BAQsFAAOCAQEAEkXNF4zxX1fIH5O+StKx
0z+3lDvDVE8nbW4GsIG4InQX9ctghfo3VTjKz1YV3nGvOanpInVN/JSmTl6aPs76
MwSrkd5b724166m05+CUP6geWVKHEz5bHtXJFomEsbMrVqR9jUqucLwgiHCOqJi+
Y8+DAevmGb0VpzbbDYNinKx6n67ctLt7AqvC5GV7HNCpMMz208lEv/fOnE0zDuef
JpAC293BSGEmakdDrxbeUYGKfCYCy/onlTRuJpNkP/zwaC/1/4TRKG/Jo0BkZgvD
5ndxF/oJ3/o7TJ1Skz8POUogl60sc7NJNjoMbSir+GLyZTn3/eT3gB6YdW8Ua1oK
Cw==
-----END CERTIFICATE-----
