Certificate:
    Data:
        Version: 3 (0x2)
        Serial Number: 18 (0x12)
        Signature Algorithm: sha256WithRSAEncryption
        Issuer: O=advancedfiltering, OU=hosts, CN=Advanced Filtering CA
        Validity
            Not Before: May 31 15:52:38 2013 GMT
            Not After : May 29 15:52:38 2023 GMT
        Subject: O=advancedfiltering, OU=hosts, CN=deploy.hosts.advancedfiltering.net
        Subject Public Key Info:
            Public Key Algorithm: rsaEncryption
            RSA Public Key: (2048 bit)
                Modulus (2048 bit):
                    00:a0:4e:47:a2:82:f5:08:11:34:f1:9f:63:f7:d0:
                    09:db:59:e4:33:24:ab:c5:aa:4f:9a:2d:1d:b4:d3:
                    bd:80:9d:05:17:2c:62:25:fe:82:24:e9:13:28:cc:
                    45:b3:7f:09:de:04:8c:7c:7a:d9:b4:a7:0d:9f:c3:
                    c2:62:18:3d:7f:a5:5b:7e:f6:ca:0d:70:16:98:6c:
                    e6:af:b8:1d:fa:42:c7:f7:8c:98:59:94:98:f4:df:
                    b5:e5:3f:39:92:d5:32:48:77:cd:40:ab:25:b3:11:
                    d5:d6:0d:34:63:57:e6:3e:b4:e2:87:24:50:0c:e7:
                    1d:25:11:e4:01:a2:79:4e:92:4f:d9:c3:a0:53:14:
                    cc:6c:ba:3a:63:8d:97:dc:a5:1b:f6:82:e7:36:90:
                    25:b6:4d:e8:b3:5b:6e:27:58:08:37:cf:b0:4a:25:
                    90:40:55:fe:13:d6:a3:54:9b:8a:1c:09:90:2c:85:
                    0e:07:b3:d2:25:3e:31:c6:4c:14:23:cd:33:ea:74:
                    27:47:47:04:d2:81:e7:12:02:58:43:eb:bb:52:26:
                    c0:ed:f9:bb:1b:67:62:e6:4a:d6:57:c0:05:78:70:
                    f5:88:41:b8:6e:2c:0e:28:e7:75:a0:b4:a6:3d:4b:
                    fc:d6:86:7c:4e:6d:92:78:a7:12:b8:33:64:07:ed:
                    27:ad
                Exponent: 65537 (0x10001)
        X509v3 extensions:
            X509v3 Basic Constraints: 
                CA:FALSE
            X509v3 Subject Key Identifier: 
                57:29:3C:5D:B0:0E:D5:2C:1B:08:D5:FF:5E:28:58:93:C0:2B:CA:62
            X509v3 Authority Key Identifier: 
                keyid:C6:7C:3F:DA:E9:AC:6B:2F:A3:8F:26:03:15:0B:DC:65:08:51:98:9D
                DirName:/O=advancedfiltering/OU=hosts/CN=Advanced Filtering CA
                serial:8C:32:88:59:79:7B:3C:CC

            X509v3 Extended Key Usage: 
                TLS Web Server Authentication, TLS Web Client Authentication
            X509v3 Key Usage: 
                Digital Signature, Key Encipherment
            X509v3 CRL Distribution Points: 
                URI:http://deploy.hosts.advancedfiltering.net/public/ca-advancedfiltering.crl

            Authority Information Access: 
                CA Issuers - URI:http://deploy.hosts.advancedfiltering.net/public/ca-advancedfiltering.crt

    Signature Algorithm: sha256WithRSAEncryption
        8b:9e:04:f5:cd:f9:ce:83:9a:ff:f3:df:5a:f9:a0:69:85:8d:
        90:27:7f:03:80:ab:f8:3a:c6:2b:4a:48:e8:9c:9c:28:07:3c:
        37:ca:03:a3:01:fd:e8:17:1e:a6:e8:2b:b2:f0:22:85:44:24:
        b6:5c:1e:a6:0a:00:db:5d:c4:68:2c:a8:ad:2c:7f:11:39:ae:
        c8:1e:6e:b6:b1:d0:f3:8d:80:d3:52:1d:78:41:9d:a9:17:11:
        bf:b7:6d:ff:63:9f:2a:e8:2e:22:ee:8a:6f:7e:9c:a0:6e:45:
        23:ce:73:63:d5:44:7d:20:86:8f:c4:c3:07:d8:f4:85:31:95:
        d5:4a:c6:0b:d5:cf:8f:c1:f8:df:27:87:68:29:2e:f2:7e:99:
        0a:cb:83:7c:60:54:b4:5f:54:96:01:e1:e3:c3:7a:41:1c:26:
        e0:d3:75:53:11:0b:dd:86:2c:7b:45:ee:d1:0a:0b:1f:c0:7c:
        74:49:4d:d5:be:48:21:34:1d:ca:5a:76:03:68:72:9e:b3:f8:
        c1:f6:4e:e5:27:36:c7:56:36:a9:bc:d3:65:9b:fb:f7:36:70:
        50:4f:37:eb:f6:8c:8f:75:dd:7a:93:53:e2:57:f0:1e:f3:23:
        2d:2c:7b:47:99:3f:41:91:b2:0b:b5:30:e8:94:fc:44:d0:52:
        30:a6:59:c3
-----BEGIN CERTIFICATE-----
MIIEvTCCA6WgAwIBAgIBEjANBgkqhkiG9w0BAQsFADBMMRowGAYDVQQKExFhZHZh
bmNlZGZpbHRlcmluZzEOMAwGA1UECxMFaG9zdHMxHjAcBgNVBAMTFUFkdmFuY2Vk
IEZpbHRlcmluZyBDQTAeFw0xMzA1MzExNTUyMzhaFw0yMzA1MjkxNTUyMzhaMFkx
GjAYBgNVBAoTEWFkdmFuY2VkZmlsdGVyaW5nMQ4wDAYDVQQLEwVob3N0czErMCkG
A1UEAxMiZGVwbG95Lmhvc3RzLmFkdmFuY2VkZmlsdGVyaW5nLm5ldDCCASIwDQYJ
KoZIhvcNAQEBBQADggEPADCCAQoCggEBAKBOR6KC9QgRNPGfY/fQCdtZ5DMkq8Wq
T5otHbTTvYCdBRcsYiX+giTpEyjMRbN/Cd4EjHx62bSnDZ/DwmIYPX+lW372yg1w
Fphs5q+4HfpCx/eMmFmUmPTfteU/OZLVMkh3zUCrJbMR1dYNNGNX5j604ockUAzn
HSUR5AGieU6ST9nDoFMUzGy6OmONl9ylG/aC5zaQJbZN6LNbbidYCDfPsEolkEBV
/hPWo1SbihwJkCyFDgez0iU+McZMFCPNM+p0J0dHBNKB5xICWEPru1ImwO35uxtn
YuZK1lfABXhw9YhBuG4sDijndaC0pj1L/NaGfE5tkninErgzZAftJ60CAwEAAaOC
AZswggGXMAkGA1UdEwQCMAAwHQYDVR0OBBYEFFcpPF2wDtUsGwjV/14oWJPAK8pi
MHwGA1UdIwR1MHOAFMZ8P9rprGsvo48mAxUL3GUIUZidoVCkTjBMMRowGAYDVQQK
ExFhZHZhbmNlZGZpbHRlcmluZzEOMAwGA1UECxMFaG9zdHMxHjAcBgNVBAMTFUFk
dmFuY2VkIEZpbHRlcmluZyBDQYIJAIwyiFl5ezzMMB0GA1UdJQQWMBQGCCsGAQUF
BwMBBggrBgEFBQcDAjALBgNVHQ8EBAMCBaAwWgYDVR0fBFMwUTBPoE2gS4ZJaHR0
cDovL2RlcGxveS5ob3N0cy5hZHZhbmNlZGZpbHRlcmluZy5uZXQvcHVibGljL2Nh
LWFkdmFuY2VkZmlsdGVyaW5nLmNybDBlBggrBgEFBQcBAQRZMFcwVQYIKwYBBQUH
MAKGSWh0dHA6Ly9kZXBsb3kuaG9zdHMuYWR2YW5jZWRmaWx0ZXJpbmcubmV0L3B1
YmxpYy9jYS1hZHZhbmNlZGZpbHRlcmluZy5jcnQwDQYJKoZIhvcNAQELBQADggEB
AIueBPXN+c6Dmv/z31r5oGmFjZAnfwOAq/g6xitKSOicnCgHPDfKA6MB/egXHqbo
K7LwIoVEJLZcHqYKANtdxGgsqK0sfxE5rsgebrax0PONgNNSHXhBnakXEb+3bf9j
nyroLiLuim9+nKBuRSPOc2PVRH0gho/EwwfY9IUxldVKxgvVz4/B+N8nh2gpLvJ+
mQrLg3xgVLRfVJYB4ePDekEcJuDTdVMRC92GLHtF7tEKCx/AfHRJTdW+SCE0Hcpa
dgNocp6z+MH2TuUnNsdWNqm802Wb+/c2cFBPN+v2jI913XqTU+JX8B7zIy0se0eZ
P0GRsgu1MOiU/ETQUjCmWcM=
-----END CERTIFICATE-----
