Certificate:
    Data:
        Version: 3 (0x2)
        Serial Number: 19 (0x13)
        Signature Algorithm: sha256WithRSAEncryption
        Issuer: O=advancedfiltering, OU=hosts, CN=Advanced Filtering CA
        Validity
            Not Before: May 31 16:08:32 2013 GMT
            Not After : May 29 16:08:32 2023 GMT
        Subject: O=advancedfiltering, OU=hosts, CN=test2.hosts.advancedfiltering.net
        Subject Public Key Info:
            Public Key Algorithm: rsaEncryption
            RSA Public Key: (2048 bit)
                Modulus (2048 bit):
                    00:eb:11:d8:e2:2e:f1:54:58:48:35:bf:b5:55:67:
                    fa:a2:42:41:d6:fc:e4:22:05:83:6b:90:9a:fe:c6:
                    5e:05:d7:b2:84:e2:4c:33:71:17:ee:2a:e6:ea:72:
                    e4:a2:15:cc:4e:67:93:a5:72:da:80:fd:f8:82:e2:
                    81:5a:9c:15:be:a1:ab:74:f1:a4:77:13:22:1e:d8:
                    42:bf:b7:50:88:02:08:73:d3:36:52:f5:91:43:37:
                    d1:73:43:23:ae:da:9c:c0:60:ab:00:4a:b8:6a:95:
                    24:4b:ce:93:44:56:37:5f:3d:29:2b:33:a4:74:f0:
                    f5:74:b7:06:ca:a3:d8:cc:7a:c0:2a:60:be:61:53:
                    29:4b:d0:71:46:b7:23:7c:21:81:74:c1:3c:83:75:
                    62:4c:fa:d9:87:d7:79:db:cd:74:43:e9:ec:2e:67:
                    d7:f3:e6:38:6e:00:ab:de:01:5f:9b:8f:00:7f:7e:
                    99:c3:87:69:c3:6f:c2:a1:e2:80:c1:05:94:05:9b:
                    a5:55:77:77:48:f0:b2:40:6e:f7:36:0d:c7:7a:2a:
                    79:b6:67:0d:4b:b2:d6:31:a8:5f:02:d1:7e:d0:03:
                    7c:91:05:25:3d:26:68:7c:f9:ac:b2:ac:55:5f:8e:
                    f6:aa:da:6a:46:8b:1e:22:9f:a7:b8:f5:2e:a8:1b:
                    f8:17
                Exponent: 65537 (0x10001)
        X509v3 extensions:
            X509v3 Basic Constraints: 
                CA:FALSE
            X509v3 Subject Key Identifier: 
                9D:82:55:19:16:70:DC:B3:78:57:D8:4F:74:98:36:B4:33:9A:A4:D3
            X509v3 Authority Key Identifier: 
                keyid:C6:7C:3F:DA:E9:AC:6B:2F:A3:8F:26:03:15:0B:DC:65:08:51:98:9D
                DirName:/O=advancedfiltering/OU=hosts/CN=Advanced Filtering CA
                serial:8C:32:88:59:79:7B:3C:CC

            X509v3 Extended Key Usage: 
                TLS Web Server Authentication, TLS Web Client Authentication
            X509v3 Key Usage: 
                Digital Signature, Key Encipherment
            X509v3 CRL Distribution Points: 
                URI:http://deploy.hosts.advancedfiltering.net/public/ca-advancedfiltering.crl

            Authority Information Access: 
                CA Issuers - URI:http://deploy.hosts.advancedfiltering.net/public/ca-advancedfiltering.crt

    Signature Algorithm: sha256WithRSAEncryption
        92:f3:8f:b0:bf:d6:fb:0e:c6:88:9b:0e:e0:50:59:a6:bf:d3:
        f6:0f:51:f8:91:be:1f:e4:2f:b5:65:e9:93:22:d9:71:82:bc:
        ae:85:9a:5a:45:1b:67:6a:f8:ef:ae:97:ae:08:ff:97:be:82:
        b7:e7:c3:db:0f:b6:3f:0e:59:17:86:70:81:3c:f0:cf:93:c6:
        d7:4f:e1:40:14:81:97:82:44:eb:b2:b1:fb:83:d3:8d:e0:e8:
        8c:13:71:f5:17:04:f6:1d:8b:43:39:38:68:f7:76:ba:d7:7b:
        b8:3a:f8:67:95:74:b2:8f:a8:d6:15:cd:ba:b5:1a:64:8d:f2:
        d9:54:38:eb:a4:1e:e4:b8:66:68:c5:08:0d:ba:11:79:2b:17:
        e8:6d:db:9a:05:03:61:9e:b5:fb:b4:4f:77:1a:8f:63:05:de:
        0d:32:ef:7d:8f:1c:a2:68:38:51:09:a2:8b:e2:48:a6:cc:a1:
        e4:6d:3e:fa:83:95:21:03:e5:bf:2b:9d:85:3e:d1:34:30:2a:
        bd:8c:74:df:b6:33:a7:8d:5e:90:22:22:d3:bc:aa:7d:24:e7:
        87:0e:fe:4d:37:76:7f:6b:7c:98:ef:f4:3d:83:d9:0e:9d:8e:
        4c:b1:4b:a9:4c:cd:60:71:91:6d:e1:35:c8:2c:80:f5:33:8a:
        03:aa:13:3a
-----BEGIN CERTIFICATE-----
MIIEvDCCA6SgAwIBAgIBEzANBgkqhkiG9w0BAQsFADBMMRowGAYDVQQKExFhZHZh
bmNlZGZpbHRlcmluZzEOMAwGA1UECxMFaG9zdHMxHjAcBgNVBAMTFUFkdmFuY2Vk
IEZpbHRlcmluZyBDQTAeFw0xMzA1MzExNjA4MzJaFw0yMzA1MjkxNjA4MzJaMFgx
GjAYBgNVBAoTEWFkdmFuY2VkZmlsdGVyaW5nMQ4wDAYDVQQLEwVob3N0czEqMCgG
A1UEAxMhdGVzdDIuaG9zdHMuYWR2YW5jZWRmaWx0ZXJpbmcubmV0MIIBIjANBgkq
hkiG9w0BAQEFAAOCAQ8AMIIBCgKCAQEA6xHY4i7xVFhINb+1VWf6okJB1vzkIgWD
a5Ca/sZeBdeyhOJMM3EX7irm6nLkohXMTmeTpXLagP34guKBWpwVvqGrdPGkdxMi
HthCv7dQiAIIc9M2UvWRQzfRc0MjrtqcwGCrAEq4apUkS86TRFY3Xz0pKzOkdPD1
dLcGyqPYzHrAKmC+YVMpS9BxRrcjfCGBdME8g3ViTPrZh9d52810Q+nsLmfX8+Y4
bgCr3gFfm48Af36Zw4dpw2/CoeKAwQWUBZulVXd3SPCyQG73Ng3Heip5tmcNS7LW
MahfAtF+0AN8kQUlPSZofPmssqxVX472qtpqRoseIp+nuPUuqBv4FwIDAQABo4IB
mzCCAZcwCQYDVR0TBAIwADAdBgNVHQ4EFgQUnYJVGRZw3LN4V9hPdJg2tDOapNMw
fAYDVR0jBHUwc4AUxnw/2umsay+jjyYDFQvcZQhRmJ2hUKROMEwxGjAYBgNVBAoT
EWFkdmFuY2VkZmlsdGVyaW5nMQ4wDAYDVQQLEwVob3N0czEeMBwGA1UEAxMVQWR2
YW5jZWQgRmlsdGVyaW5nIENBggkAjDKIWXl7PMwwHQYDVR0lBBYwFAYIKwYBBQUH
AwEGCCsGAQUFBwMCMAsGA1UdDwQEAwIFoDBaBgNVHR8EUzBRME+gTaBLhklodHRw
Oi8vZGVwbG95Lmhvc3RzLmFkdmFuY2VkZmlsdGVyaW5nLm5ldC9wdWJsaWMvY2Et
YWR2YW5jZWRmaWx0ZXJpbmcuY3JsMGUGCCsGAQUFBwEBBFkwVzBVBggrBgEFBQcw
AoZJaHR0cDovL2RlcGxveS5ob3N0cy5hZHZhbmNlZGZpbHRlcmluZy5uZXQvcHVi
bGljL2NhLWFkdmFuY2VkZmlsdGVyaW5nLmNydDANBgkqhkiG9w0BAQsFAAOCAQEA
kvOPsL/W+w7GiJsO4FBZpr/T9g9R+JG+H+QvtWXpkyLZcYK8roWaWkUbZ2r4766X
rgj/l76Ct+fD2w+2Pw5ZF4ZwgTzwz5PG10/hQBSBl4JE67Kx+4PTjeDojBNx9RcE
9h2LQzk4aPd2utd7uDr4Z5V0so+o1hXNurUaZI3y2VQ466Qe5LhmaMUIDboReSsX
6G3bmgUDYZ61+7RPdxqPYwXeDTLvfY8comg4UQmii+JIpsyh5G0++oOVIQPlvyud
hT7RNDAqvYx037Yzp41ekCIi07yqfSTnhw7+TTd2f2t8mO/0PYPZDp2OTLFLqUzN
YHGRbeE1yCyA9TOKA6oTOg==
-----END CERTIFICATE-----
