Certificate:
    Data:
        Version: 3 (0x2)
        Serial Number: 20 (0x14)
        Signature Algorithm: sha256WithRSAEncryption
        Issuer: O=advancedfiltering, OU=hosts, CN=Advanced Filtering CA
        Validity
            Not Before: May 31 16:08:33 2013 GMT
            Not After : May 29 16:08:33 2023 GMT
        Subject: O=advancedfiltering, OU=hosts, CN=test1.hosts.advancedfiltering.net
        Subject Public Key Info:
            Public Key Algorithm: rsaEncryption
            RSA Public Key: (2048 bit)
                Modulus (2048 bit):
                    00:d6:13:bc:64:88:6f:da:04:64:55:8d:ec:e7:35:
                    cb:39:a0:cb:15:a5:ab:0c:d3:68:de:cd:d1:d8:e2:
                    f9:6e:9a:78:1b:24:3a:64:c3:0d:00:4d:6a:5f:4c:
                    c8:bc:86:b0:3d:0d:2d:b1:7c:43:81:d4:4e:d1:95:
                    b8:59:23:16:9b:c6:b4:34:52:d7:eb:ac:66:89:27:
                    b5:43:57:73:bf:3d:2b:94:38:c8:fa:e4:dc:d0:32:
                    63:75:b0:a6:06:dc:6b:10:67:bd:dd:66:b0:5e:8f:
                    ae:36:40:e0:3f:32:f0:1a:9f:b7:b4:7c:66:a0:14:
                    b0:1b:cc:06:fd:80:e4:ce:74:e9:0b:98:74:84:35:
                    30:3c:96:c3:32:3c:89:65:be:82:06:33:9a:a7:f5:
                    53:1c:7a:d7:d6:8a:69:1f:d4:e1:d8:9a:af:67:ec:
                    02:ad:d6:51:99:64:b5:47:3a:25:1f:ff:63:2c:ff:
                    6a:6e:42:02:a9:4b:09:f4:3d:a0:0e:29:e7:ec:6e:
                    bf:b9:f0:1b:1a:3b:ee:85:f1:a0:34:0d:0d:ab:19:
                    04:86:e6:57:3a:ae:4c:75:f9:ab:e1:26:b3:02:52:
                    ac:d7:dd:d1:32:cc:58:94:46:f7:33:77:13:6c:4b:
                    ee:80:35:da:db:41:13:b5:47:f9:c1:e6:cb:3f:16:
                    19:61
                Exponent: 65537 (0x10001)
        X509v3 extensions:
            X509v3 Basic Constraints: 
                CA:FALSE
            X509v3 Subject Key Identifier: 
                5B:8A:80:EF:60:BC:BD:50:9B:8E:7D:C0:0A:FF:DA:50:65:DC:CF:02
            X509v3 Authority Key Identifier: 
                keyid:C6:7C:3F:DA:E9:AC:6B:2F:A3:8F:26:03:15:0B:DC:65:08:51:98:9D
                DirName:/O=advancedfiltering/OU=hosts/CN=Advanced Filtering CA
                serial:8C:32:88:59:79:7B:3C:CC

            X509v3 Extended Key Usage: 
                TLS Web Server Authentication, TLS Web Client Authentication
            X509v3 Key Usage: 
                Digital Signature, Key Encipherment
            X509v3 CRL Distribution Points: 
                URI:http://deploy.hosts.advancedfiltering.net/public/ca-advancedfiltering.crl

            Authority Information Access: 
                CA Issuers - URI:http://deploy.hosts.advancedfiltering.net/public/ca-advancedfiltering.crt

    Signature Algorithm: sha256WithRSAEncryption
        8b:8c:32:7a:32:4f:f7:3c:de:9d:62:b1:e5:83:23:ef:ff:b7:
        00:b5:6b:25:97:49:cb:f3:99:61:e6:78:92:6e:f8:87:19:28:
        2e:ef:d7:54:41:a3:d9:db:51:41:a9:93:c1:cd:dc:89:9e:c6:
        c6:f9:95:f9:71:c2:08:99:3a:f0:af:da:ba:47:9f:57:f8:d2:
        c2:7c:73:95:58:2c:b0:77:f9:f7:f1:84:65:21:c3:f7:29:41:
        6b:8d:72:01:09:0e:24:0f:3c:10:12:71:09:ba:b9:25:15:35:
        51:4b:3c:74:4b:ab:7a:5a:57:fb:71:56:75:4e:06:8e:6a:4c:
        7f:6e:f0:41:8c:0f:2e:21:96:cd:bb:53:bf:53:06:ba:a2:8c:
        c8:11:5b:36:c4:41:fb:fa:ce:cd:95:4f:96:cd:dc:e1:1d:96:
        dc:cd:51:80:f9:41:57:f9:98:67:f5:d3:9c:a8:b3:37:ba:4b:
        46:82:3f:04:ad:c8:b7:63:63:89:6c:34:bb:cf:32:83:1b:fb:
        cc:14:b7:4a:17:eb:cd:e0:65:0c:74:1c:72:29:f8:45:e8:7c:
        13:b0:51:94:5d:af:08:15:47:ed:ee:64:a2:f4:e3:0f:3e:e4:
        a2:4b:c6:e3:c3:30:96:ba:ee:38:73:b4:39:b8:47:bd:8d:8d:
        d3:37:5b:2b
-----BEGIN CERTIFICATE-----
MIIEvDCCA6SgAwIBAgIBFDANBgkqhkiG9w0BAQsFADBMMRowGAYDVQQKExFhZHZh
bmNlZGZpbHRlcmluZzEOMAwGA1UECxMFaG9zdHMxHjAcBgNVBAMTFUFkdmFuY2Vk
IEZpbHRlcmluZyBDQTAeFw0xMzA1MzExNjA4MzNaFw0yMzA1MjkxNjA4MzNaMFgx
GjAYBgNVBAoTEWFkdmFuY2VkZmlsdGVyaW5nMQ4wDAYDVQQLEwVob3N0czEqMCgG
A1UEAxMhdGVzdDEuaG9zdHMuYWR2YW5jZWRmaWx0ZXJpbmcubmV0MIIBIjANBgkq
hkiG9w0BAQEFAAOCAQ8AMIIBCgKCAQEA1hO8ZIhv2gRkVY3s5zXLOaDLFaWrDNNo
3s3R2OL5bpp4GyQ6ZMMNAE1qX0zIvIawPQ0tsXxDgdRO0ZW4WSMWm8a0NFLX66xm
iSe1Q1dzvz0rlDjI+uTc0DJjdbCmBtxrEGe93WawXo+uNkDgPzLwGp+3tHxmoBSw
G8wG/YDkznTpC5h0hDUwPJbDMjyJZb6CBjOap/VTHHrX1oppH9Th2JqvZ+wCrdZR
mWS1RzolH/9jLP9qbkICqUsJ9D2gDinn7G6/ufAbGjvuhfGgNA0NqxkEhuZXOq5M
dfmr4SazAlKs193RMsxYlEb3M3cTbEvugDXa20ETtUf5webLPxYZYQIDAQABo4IB
mzCCAZcwCQYDVR0TBAIwADAdBgNVHQ4EFgQUW4qA72C8vVCbjn3ACv/aUGXczwIw
fAYDVR0jBHUwc4AUxnw/2umsay+jjyYDFQvcZQhRmJ2hUKROMEwxGjAYBgNVBAoT
EWFkdmFuY2VkZmlsdGVyaW5nMQ4wDAYDVQQLEwVob3N0czEeMBwGA1UEAxMVQWR2
YW5jZWQgRmlsdGVyaW5nIENBggkAjDKIWXl7PMwwHQYDVR0lBBYwFAYIKwYBBQUH
AwEGCCsGAQUFBwMCMAsGA1UdDwQEAwIFoDBaBgNVHR8EUzBRME+gTaBLhklodHRw
Oi8vZGVwbG95Lmhvc3RzLmFkdmFuY2VkZmlsdGVyaW5nLm5ldC9wdWJsaWMvY2Et
YWR2YW5jZWRmaWx0ZXJpbmcuY3JsMGUGCCsGAQUFBwEBBFkwVzBVBggrBgEFBQcw
AoZJaHR0cDovL2RlcGxveS5ob3N0cy5hZHZhbmNlZGZpbHRlcmluZy5uZXQvcHVi
bGljL2NhLWFkdmFuY2VkZmlsdGVyaW5nLmNydDANBgkqhkiG9w0BAQsFAAOCAQEA
i4wyejJP9zzenWKx5YMj7/+3ALVrJZdJy/OZYeZ4km74hxkoLu/XVEGj2dtRQamT
wc3ciZ7GxvmV+XHCCJk68K/aukefV/jSwnxzlVgssHf59/GEZSHD9ylBa41yAQkO
JA88EBJxCbq5JRU1UUs8dEurelpX+3FWdU4GjmpMf27wQYwPLiGWzbtTv1MGuqKM
yBFbNsRB+/rOzZVPls3c4R2W3M1RgPlBV/mYZ/XTnKizN7pLRoI/BK3It2NjiWw0
u88ygxv7zBS3ShfrzeBlDHQccin4Reh8E7BRlF2vCBVH7e5kovTjDz7kokvG48Mw
lrruOHO0ObhHvY2N0zdbKw==
-----END CERTIFICATE-----
