Certificate:
    Data:
        Version: 3 (0x2)
        Serial Number: 24 (0x18)
        Signature Algorithm: sha256WithRSAEncryption
        Issuer: O=advancedfiltering, OU=hosts, CN=Advanced Filtering CA
        Validity
            Not Before: Sep 14 15:46:38 2013 GMT
            Not After : Sep 12 15:46:38 2023 GMT
        Subject: O=advancedfiltering, OU=hosts, CN=fvds01.hosts.advancedfiltering.net
        Subject Public Key Info:
            Public Key Algorithm: rsaEncryption
            RSA Public Key: (2048 bit)
                Modulus (2048 bit):
                    00:b0:8a:eb:ed:30:6c:4d:8b:d4:f8:2a:6c:e1:1c:
                    75:93:65:6f:3f:d6:b8:9f:11:58:62:e5:7d:3a:4e:
                    59:90:9c:e3:11:0a:c3:20:96:7d:21:5e:90:66:8a:
                    d1:64:a9:5b:c1:35:21:21:9f:87:21:3c:03:87:95:
                    03:13:c3:af:4c:11:d7:4c:31:35:5e:b6:7f:7a:89:
                    56:28:a7:61:7d:c9:dd:4c:8b:56:97:09:e4:d7:aa:
                    69:5a:38:1a:ae:a6:3e:08:38:cb:20:bc:9c:8b:ed:
                    08:4f:87:0e:c5:8b:7c:c5:7c:de:cb:65:7a:86:b8:
                    e1:34:25:8b:8c:2a:b7:6c:6e:ad:d1:fb:eb:9e:f1:
                    4d:1a:66:0e:c0:38:7a:6b:e6:ec:43:26:9b:f1:20:
                    d5:35:2d:17:22:cb:67:59:5b:49:b4:a2:59:38:73:
                    18:37:69:8c:12:d5:a3:af:19:ae:71:21:f5:95:f8:
                    ac:1a:43:f4:88:e5:17:47:94:48:52:be:3c:b0:7c:
                    62:52:ff:08:25:3d:63:df:21:5d:6d:d8:ec:aa:89:
                    ad:82:38:67:d5:58:2b:a4:b9:f8:1e:08:00:82:bc:
                    fb:f3:34:2f:9c:e1:aa:8d:9e:5e:da:a9:2b:02:b1:
                    fb:d1:2e:0a:7f:5b:04:73:e0:51:04:b4:f2:0c:00:
                    95:1f
                Exponent: 65537 (0x10001)
        X509v3 extensions:
            X509v3 Basic Constraints: 
                CA:FALSE
            X509v3 Subject Key Identifier: 
                F0:D2:18:26:8C:43:96:42:68:93:6E:D1:6E:CD:69:DD:D5:B3:F2:58
            X509v3 Authority Key Identifier: 
                keyid:C6:7C:3F:DA:E9:AC:6B:2F:A3:8F:26:03:15:0B:DC:65:08:51:98:9D
                DirName:/O=advancedfiltering/OU=hosts/CN=Advanced Filtering CA
                serial:8C:32:88:59:79:7B:3C:CC

            X509v3 Extended Key Usage: 
                TLS Web Server Authentication, TLS Web Client Authentication
            X509v3 Key Usage: 
                Digital Signature, Key Encipherment
            X509v3 CRL Distribution Points: 
                URI:http://deploy.hosts.advancedfiltering.net/public/ca-advancedfiltering.crl

            Authority Information Access: 
                CA Issuers - URI:http://deploy.hosts.advancedfiltering.net/public/ca-advancedfiltering.crt

    Signature Algorithm: sha256WithRSAEncryption
        21:6e:0a:e1:e1:46:f1:3a:5c:91:1d:39:05:1c:4e:37:20:f8:
        25:21:91:73:96:66:a3:b1:07:81:c1:7a:54:93:5a:33:61:56:
        45:ef:56:85:6e:b9:5a:3c:8d:b8:95:b7:46:31:bb:44:c1:e0:
        fc:b3:d9:40:c9:a4:69:52:f2:67:db:9d:be:85:9f:49:0f:35:
        da:84:30:ea:3a:4b:54:91:0b:b4:46:17:59:4a:99:35:73:b4:
        58:b4:04:6b:7b:7a:f5:b1:d1:3d:0c:46:e2:2d:e6:98:11:b9:
        11:cc:0e:03:b1:65:be:f0:6a:e8:4e:6c:62:2e:9a:55:de:eb:
        a0:32:a2:d0:9c:36:2f:bf:5a:ff:20:90:47:05:88:20:4e:5f:
        be:c2:07:cc:50:52:ad:a2:22:d1:78:50:40:9e:06:bb:fa:21:
        ad:82:38:dd:63:74:33:4c:5f:70:13:ae:d2:f0:7e:77:f0:5f:
        79:13:b2:6c:2d:70:db:cf:72:24:27:2a:f3:5a:ba:14:41:a2:
        5c:dd:17:ab:16:95:69:ba:fc:93:4b:95:3f:87:b2:f5:d4:f9:
        33:b9:55:f9:f4:c1:dc:c1:5b:bb:ab:c6:1a:c2:d6:97:c1:cd:
        e8:1c:cf:29:09:22:07:7b:64:48:64:cb:22:ef:91:ac:be:a8:
        44:92:1d:5a
-----BEGIN CERTIFICATE-----
MIIEvTCCA6WgAwIBAgIBGDANBgkqhkiG9w0BAQsFADBMMRowGAYDVQQKExFhZHZh
bmNlZGZpbHRlcmluZzEOMAwGA1UECxMFaG9zdHMxHjAcBgNVBAMTFUFkdmFuY2Vk
IEZpbHRlcmluZyBDQTAeFw0xMzA5MTQxNTQ2MzhaFw0yMzA5MTIxNTQ2MzhaMFkx
GjAYBgNVBAoTEWFkdmFuY2VkZmlsdGVyaW5nMQ4wDAYDVQQLEwVob3N0czErMCkG
A1UEAxMiZnZkczAxLmhvc3RzLmFkdmFuY2VkZmlsdGVyaW5nLm5ldDCCASIwDQYJ
KoZIhvcNAQEBBQADggEPADCCAQoCggEBALCK6+0wbE2L1PgqbOEcdZNlbz/WuJ8R
WGLlfTpOWZCc4xEKwyCWfSFekGaK0WSpW8E1ISGfhyE8A4eVAxPDr0wR10wxNV62
f3qJViinYX3J3UyLVpcJ5NeqaVo4Gq6mPgg4yyC8nIvtCE+HDsWLfMV83stleoa4
4TQli4wqt2xurdH7657xTRpmDsA4emvm7EMmm/Eg1TUtFyLLZ1lbSbSiWThzGDdp
jBLVo68ZrnEh9ZX4rBpD9IjlF0eUSFK+PLB8YlL/CCU9Y98hXW3Y7KqJrYI4Z9VY
K6S5+B4IAIK8+/M0L5zhqo2eXtqpKwKx+9EuCn9bBHPgUQS08gwAlR8CAwEAAaOC
AZswggGXMAkGA1UdEwQCMAAwHQYDVR0OBBYEFPDSGCaMQ5ZCaJNu0W7Nad3Vs/JY
MHwGA1UdIwR1MHOAFMZ8P9rprGsvo48mAxUL3GUIUZidoVCkTjBMMRowGAYDVQQK
ExFhZHZhbmNlZGZpbHRlcmluZzEOMAwGA1UECxMFaG9zdHMxHjAcBgNVBAMTFUFk
dmFuY2VkIEZpbHRlcmluZyBDQYIJAIwyiFl5ezzMMB0GA1UdJQQWMBQGCCsGAQUF
BwMBBggrBgEFBQcDAjALBgNVHQ8EBAMCBaAwWgYDVR0fBFMwUTBPoE2gS4ZJaHR0
cDovL2RlcGxveS5ob3N0cy5hZHZhbmNlZGZpbHRlcmluZy5uZXQvcHVibGljL2Nh
LWFkdmFuY2VkZmlsdGVyaW5nLmNybDBlBggrBgEFBQcBAQRZMFcwVQYIKwYBBQUH
MAKGSWh0dHA6Ly9kZXBsb3kuaG9zdHMuYWR2YW5jZWRmaWx0ZXJpbmcubmV0L3B1
YmxpYy9jYS1hZHZhbmNlZGZpbHRlcmluZy5jcnQwDQYJKoZIhvcNAQELBQADggEB
ACFuCuHhRvE6XJEdOQUcTjcg+CUhkXOWZqOxB4HBelSTWjNhVkXvVoVuuVo8jbiV
t0Yxu0TB4Pyz2UDJpGlS8mfbnb6Fn0kPNdqEMOo6S1SRC7RGF1lKmTVztFi0BGt7
evWx0T0MRuIt5pgRuRHMDgOxZb7wauhObGIumlXe66AyotCcNi+/Wv8gkEcFiCBO
X77CB8xQUq2iItF4UECeBrv6Ia2CON1jdDNMX3ATrtLwfnfwX3kTsmwtcNvPciQn
KvNauhRBolzdF6sWlWm6/JNLlT+HsvXU+TO5Vfn0wdzBW7urxhrC1pfBzegczykJ
Igd7ZEhkyyLvkay+qESSHVo=
-----END CERTIFICATE-----
