Certificate:
    Data:
        Version: 3 (0x2)
        Serial Number: 27 (0x1b)
        Signature Algorithm: sha256WithRSAEncryption
        Issuer: O=advancedfiltering, OU=hosts, CN=Advanced Filtering CA
        Validity
            Not Before: Sep 14 18:43:58 2013 GMT
            Not After : Sep 12 18:43:58 2023 GMT
        Subject: O=advancedfiltering, OU=hosts, CN=fvds02.hosts.advancedfiltering.net
        Subject Public Key Info:
            Public Key Algorithm: rsaEncryption
            RSA Public Key: (2048 bit)
                Modulus (2048 bit):
                    00:b1:fa:96:42:0d:7d:64:ea:b1:54:1e:10:28:d2:
                    61:b4:f0:e9:09:53:e5:7e:c9:04:70:06:86:1f:6c:
                    c9:1a:36:2f:68:6c:b4:e5:7b:b0:69:ed:ba:05:8e:
                    9a:05:b0:43:bc:de:e3:c6:da:a7:81:0b:69:67:37:
                    97:76:5d:bd:ab:83:75:50:23:6b:c9:26:4f:d4:a0:
                    bc:62:29:b0:d2:e1:31:3e:de:ea:b2:f5:f9:3d:d1:
                    40:e3:cc:aa:df:c0:63:0e:b7:af:fc:29:ab:15:3f:
                    94:ae:a3:51:b6:30:c3:e8:e7:30:ce:6b:84:b9:19:
                    65:6a:6b:22:aa:61:92:bc:3f:02:43:97:fb:7e:a5:
                    dc:f9:57:c9:a2:1d:d1:c3:4c:37:c9:4b:49:67:d5:
                    bf:34:99:1b:96:a2:c8:e7:4d:95:0e:e4:ec:2c:71:
                    79:66:a2:fb:34:ce:9d:66:fa:7a:4d:15:2a:72:30:
                    30:61:0e:dd:1b:ef:ce:7b:d9:32:9f:de:62:5f:e5:
                    ac:de:fc:7b:19:da:fc:c9:eb:4e:7d:b2:1d:a8:95:
                    c9:39:bc:d9:0c:a9:a7:d4:48:74:ef:3b:64:53:13:
                    ea:f0:f4:85:05:07:63:08:c1:b3:89:b7:05:65:48:
                    a4:84:04:eb:1c:b6:4f:19:22:a6:d6:7f:c2:c2:3a:
                    6a:31
                Exponent: 65537 (0x10001)
        X509v3 extensions:
            X509v3 Basic Constraints: 
                CA:FALSE
            X509v3 Subject Key Identifier: 
                91:48:FE:D6:43:6C:5E:14:23:A7:E1:09:06:27:E3:F4:FE:67:4F:FE
            X509v3 Authority Key Identifier: 
                keyid:C6:7C:3F:DA:E9:AC:6B:2F:A3:8F:26:03:15:0B:DC:65:08:51:98:9D
                DirName:/O=advancedfiltering/OU=hosts/CN=Advanced Filtering CA
                serial:8C:32:88:59:79:7B:3C:CC

            X509v3 Extended Key Usage: 
                TLS Web Server Authentication, TLS Web Client Authentication
            X509v3 Key Usage: 
                Digital Signature, Key Encipherment
            X509v3 CRL Distribution Points: 
                URI:http://deploy.hosts.advancedfiltering.net/public/ca-advancedfiltering.crl

            Authority Information Access: 
                CA Issuers - URI:http://deploy.hosts.advancedfiltering.net/public/ca-advancedfiltering.crt

    Signature Algorithm: sha256WithRSAEncryption
        ab:dd:90:9e:b7:c0:48:8b:3b:b2:a0:92:34:7e:01:1d:18:9d:
        3c:fd:5a:4f:9d:51:bb:37:1a:50:c1:2c:ff:7f:ec:f4:e6:8a:
        d7:9a:8f:55:06:e7:67:da:95:f2:7e:40:4d:29:ea:8c:dc:98:
        42:e4:88:5b:86:20:5f:fa:b4:35:58:75:72:37:52:7e:f4:ba:
        81:19:6d:11:11:0e:90:43:af:96:7f:55:ec:e7:90:15:ee:72:
        e0:4f:67:d1:7d:79:ef:27:a7:0f:cf:51:49:36:9a:94:6d:11:
        09:99:49:b1:30:50:1d:22:ca:dd:80:8a:1a:18:20:e9:cf:e3:
        aa:91:6d:f6:0b:7b:09:b4:bd:67:e7:fd:10:04:47:0c:90:8b:
        c6:94:49:1d:8f:82:fb:2f:11:12:47:cc:d4:6f:be:c0:f3:42:
        66:2f:94:0c:65:04:6d:d0:b7:3c:5b:bc:85:99:70:26:af:ee:
        40:86:17:38:13:a6:10:2e:d2:75:43:0a:01:82:9f:2a:71:9e:
        7d:d9:ef:03:88:d7:f7:00:95:19:f5:28:88:4c:22:b2:23:4f:
        4b:f2:ba:d2:89:78:d9:7e:b6:ba:82:f6:8c:43:24:c2:8b:36:
        e9:19:a7:a0:61:a7:62:08:38:fb:14:7a:d7:ba:e2:46:10:ca:
        dd:4d:43:39
-----BEGIN CERTIFICATE-----
MIIEvTCCA6WgAwIBAgIBGzANBgkqhkiG9w0BAQsFADBMMRowGAYDVQQKExFhZHZh
bmNlZGZpbHRlcmluZzEOMAwGA1UECxMFaG9zdHMxHjAcBgNVBAMTFUFkdmFuY2Vk
IEZpbHRlcmluZyBDQTAeFw0xMzA5MTQxODQzNThaFw0yMzA5MTIxODQzNThaMFkx
GjAYBgNVBAoTEWFkdmFuY2VkZmlsdGVyaW5nMQ4wDAYDVQQLEwVob3N0czErMCkG
A1UEAxMiZnZkczAyLmhvc3RzLmFkdmFuY2VkZmlsdGVyaW5nLm5ldDCCASIwDQYJ
KoZIhvcNAQEBBQADggEPADCCAQoCggEBALH6lkINfWTqsVQeECjSYbTw6QlT5X7J
BHAGhh9syRo2L2hstOV7sGntugWOmgWwQ7ze48bap4ELaWc3l3ZdvauDdVAja8km
T9SgvGIpsNLhMT7e6rL1+T3RQOPMqt/AYw63r/wpqxU/lK6jUbYww+jnMM5rhLkZ
ZWprIqphkrw/AkOX+36l3PlXyaId0cNMN8lLSWfVvzSZG5aiyOdNlQ7k7CxxeWai
+zTOnWb6ek0VKnIwMGEO3RvvznvZMp/eYl/lrN78exna/MnrTn2yHaiVyTm82Qyp
p9RIdO87ZFMT6vD0hQUHYwjBs4m3BWVIpIQE6xy2TxkiptZ/wsI6ajECAwEAAaOC
AZswggGXMAkGA1UdEwQCMAAwHQYDVR0OBBYEFJFI/tZDbF4UI6fhCQYn4/T+Z0/+
MHwGA1UdIwR1MHOAFMZ8P9rprGsvo48mAxUL3GUIUZidoVCkTjBMMRowGAYDVQQK
ExFhZHZhbmNlZGZpbHRlcmluZzEOMAwGA1UECxMFaG9zdHMxHjAcBgNVBAMTFUFk
dmFuY2VkIEZpbHRlcmluZyBDQYIJAIwyiFl5ezzMMB0GA1UdJQQWMBQGCCsGAQUF
BwMBBggrBgEFBQcDAjALBgNVHQ8EBAMCBaAwWgYDVR0fBFMwUTBPoE2gS4ZJaHR0
cDovL2RlcGxveS5ob3N0cy5hZHZhbmNlZGZpbHRlcmluZy5uZXQvcHVibGljL2Nh
LWFkdmFuY2VkZmlsdGVyaW5nLmNybDBlBggrBgEFBQcBAQRZMFcwVQYIKwYBBQUH
MAKGSWh0dHA6Ly9kZXBsb3kuaG9zdHMuYWR2YW5jZWRmaWx0ZXJpbmcubmV0L3B1
YmxpYy9jYS1hZHZhbmNlZGZpbHRlcmluZy5jcnQwDQYJKoZIhvcNAQELBQADggEB
AKvdkJ63wEiLO7KgkjR+AR0YnTz9Wk+dUbs3GlDBLP9/7PTmiteaj1UG52falfJ+
QE0p6ozcmELkiFuGIF/6tDVYdXI3Un70uoEZbRERDpBDr5Z/VeznkBXucuBPZ9F9
ee8npw/PUUk2mpRtEQmZSbEwUB0iyt2AihoYIOnP46qRbfYLewm0vWfn/RAERwyQ
i8aUSR2PgvsvERJHzNRvvsDzQmYvlAxlBG3QtzxbvIWZcCav7kCGFzgTphAu0nVD
CgGCnypxnn3Z7wOI1/cAlRn1KIhMIrIjT0vyutKJeNl+trqC9oxDJMKLNukZp6Bh
p2IIOPsUete64kYQyt1NQzk=
-----END CERTIFICATE-----
