Certificate:
    Data:
        Version: 3 (0x2)
        Serial Number: 29 (0x1d)
        Signature Algorithm: sha256WithRSAEncryption
        Issuer: O=advancedfiltering, OU=hosts, CN=Advanced Filtering CA
        Validity
            Not Before: Sep 14 18:43:58 2013 GMT
            Not After : Sep 12 18:43:58 2023 GMT
        Subject: O=advancedfiltering, OU=hosts, CN=fvds04.hosts.advancedfiltering.net
        Subject Public Key Info:
            Public Key Algorithm: rsaEncryption
            RSA Public Key: (2048 bit)
                Modulus (2048 bit):
                    00:bf:af:d3:95:ed:0e:c1:6e:23:82:36:13:03:26:
                    53:e3:0a:f1:ab:4e:c6:c9:c4:ee:5a:9b:fb:30:59:
                    f7:ac:3d:e8:9f:a0:06:44:27:5a:6b:9c:dd:d4:f5:
                    6c:6d:b9:3a:7f:36:1e:7d:ef:16:53:ae:f5:8c:03:
                    61:86:80:ed:b1:a0:df:4d:96:7d:9b:d4:e1:84:9c:
                    8b:36:0d:88:3f:07:7a:f9:b7:14:04:70:77:80:38:
                    8d:1a:bb:34:ca:79:62:9a:e1:99:ee:69:bd:c5:ce:
                    6e:38:ae:0a:8f:4c:99:e0:50:12:c8:95:7c:69:9a:
                    da:a2:d8:5f:56:82:ca:d1:2d:2f:22:44:a7:f3:6b:
                    5b:6f:1b:1a:4d:d3:72:49:8e:a6:03:ab:bd:e3:20:
                    b5:aa:83:ae:4f:d4:c0:64:bc:f3:3a:60:b5:93:04:
                    72:02:a4:8d:fe:4a:34:7c:81:54:14:7c:6c:c0:7e:
                    cf:48:e3:13:2c:17:4b:90:9f:0c:af:ae:b3:8c:3e:
                    dc:6d:79:cc:10:7b:a3:7d:6a:7b:45:cc:04:9a:6d:
                    03:7b:b7:a1:f4:10:ec:6c:46:e3:a4:43:fe:d1:5d:
                    dd:ab:ea:a6:f3:fe:25:ab:b5:42:cc:cd:8e:00:8e:
                    18:c0:f5:3b:16:c3:dc:3e:ef:04:6f:77:94:36:54:
                    80:a7
                Exponent: 65537 (0x10001)
        X509v3 extensions:
            X509v3 Basic Constraints: 
                CA:FALSE
            X509v3 Subject Key Identifier: 
                96:3A:DD:8A:94:19:99:70:6C:87:11:5D:94:A1:08:28:A3:5A:76:66
            X509v3 Authority Key Identifier: 
                keyid:C6:7C:3F:DA:E9:AC:6B:2F:A3:8F:26:03:15:0B:DC:65:08:51:98:9D
                DirName:/O=advancedfiltering/OU=hosts/CN=Advanced Filtering CA
                serial:8C:32:88:59:79:7B:3C:CC

            X509v3 Extended Key Usage: 
                TLS Web Server Authentication, TLS Web Client Authentication
            X509v3 Key Usage: 
                Digital Signature, Key Encipherment
            X509v3 CRL Distribution Points: 
                URI:http://deploy.hosts.advancedfiltering.net/public/ca-advancedfiltering.crl

            Authority Information Access: 
                CA Issuers - URI:http://deploy.hosts.advancedfiltering.net/public/ca-advancedfiltering.crt

    Signature Algorithm: sha256WithRSAEncryption
        b6:b0:1d:19:9c:4d:14:b1:50:d3:1b:2d:88:0d:39:2c:1c:a1:
        35:98:63:75:6b:4d:5f:29:73:39:a4:15:13:7e:42:a7:1d:e3:
        10:8e:13:23:2f:5b:30:0c:31:87:11:5b:8e:af:3c:67:89:5e:
        44:78:51:dc:49:5b:da:c8:05:60:93:d3:83:ac:e6:50:f6:2b:
        be:c8:ae:6c:38:2d:08:b1:45:a8:11:38:37:c9:06:ed:65:6a:
        28:9c:ae:92:6c:4d:6b:06:25:71:d7:5d:16:bf:08:51:91:81:
        28:14:ac:79:15:e4:39:ca:ce:ca:fa:91:4c:f1:62:9c:9e:3d:
        89:12:bd:43:c7:62:16:f9:7d:f9:c8:6e:ce:04:65:b1:79:34:
        d1:aa:f0:8c:78:f7:07:46:0f:a7:37:b1:13:31:b7:05:0e:4c:
        3b:94:34:37:14:06:94:1b:2b:7f:bf:15:c0:65:48:cc:45:0e:
        1a:4b:1a:1a:43:78:64:87:d6:63:58:4e:5b:7e:5f:a9:b2:44:
        49:fe:35:b1:12:e6:48:0c:f9:00:18:26:98:9e:bb:32:78:0c:
        7d:d4:ea:14:f2:49:79:6d:9a:b3:cd:ce:bd:b7:3a:0d:ee:bd:
        5c:c5:16:7e:8c:d5:83:e4:34:dd:a6:7a:36:b3:2f:02:3d:4b:
        bc:5e:83:0a
-----BEGIN CERTIFICATE-----
MIIEvTCCA6WgAwIBAgIBHTANBgkqhkiG9w0BAQsFADBMMRowGAYDVQQKExFhZHZh
bmNlZGZpbHRlcmluZzEOMAwGA1UECxMFaG9zdHMxHjAcBgNVBAMTFUFkdmFuY2Vk
IEZpbHRlcmluZyBDQTAeFw0xMzA5MTQxODQzNThaFw0yMzA5MTIxODQzNThaMFkx
GjAYBgNVBAoTEWFkdmFuY2VkZmlsdGVyaW5nMQ4wDAYDVQQLEwVob3N0czErMCkG
A1UEAxMiZnZkczA0Lmhvc3RzLmFkdmFuY2VkZmlsdGVyaW5nLm5ldDCCASIwDQYJ
KoZIhvcNAQEBBQADggEPADCCAQoCggEBAL+v05XtDsFuI4I2EwMmU+MK8atOxsnE
7lqb+zBZ96w96J+gBkQnWmuc3dT1bG25On82Hn3vFlOu9YwDYYaA7bGg302WfZvU
4YScizYNiD8Hevm3FARwd4A4jRq7NMp5Yprhme5pvcXObjiuCo9MmeBQEsiVfGma
2qLYX1aCytEtLyJEp/NrW28bGk3TckmOpgOrveMgtaqDrk/UwGS88zpgtZMEcgKk
jf5KNHyBVBR8bMB+z0jjEywXS5CfDK+us4w+3G15zBB7o31qe0XMBJptA3u3ofQQ
7GxG46RD/tFd3avqpvP+Jau1QszNjgCOGMD1OxbD3D7vBG93lDZUgKcCAwEAAaOC
AZswggGXMAkGA1UdEwQCMAAwHQYDVR0OBBYEFJY63YqUGZlwbIcRXZShCCijWnZm
MHwGA1UdIwR1MHOAFMZ8P9rprGsvo48mAxUL3GUIUZidoVCkTjBMMRowGAYDVQQK
ExFhZHZhbmNlZGZpbHRlcmluZzEOMAwGA1UECxMFaG9zdHMxHjAcBgNVBAMTFUFk
dmFuY2VkIEZpbHRlcmluZyBDQYIJAIwyiFl5ezzMMB0GA1UdJQQWMBQGCCsGAQUF
BwMBBggrBgEFBQcDAjALBgNVHQ8EBAMCBaAwWgYDVR0fBFMwUTBPoE2gS4ZJaHR0
cDovL2RlcGxveS5ob3N0cy5hZHZhbmNlZGZpbHRlcmluZy5uZXQvcHVibGljL2Nh
LWFkdmFuY2VkZmlsdGVyaW5nLmNybDBlBggrBgEFBQcBAQRZMFcwVQYIKwYBBQUH
MAKGSWh0dHA6Ly9kZXBsb3kuaG9zdHMuYWR2YW5jZWRmaWx0ZXJpbmcubmV0L3B1
YmxpYy9jYS1hZHZhbmNlZGZpbHRlcmluZy5jcnQwDQYJKoZIhvcNAQELBQADggEB
ALawHRmcTRSxUNMbLYgNOSwcoTWYY3VrTV8pczmkFRN+Qqcd4xCOEyMvWzAMMYcR
W46vPGeJXkR4UdxJW9rIBWCT04Os5lD2K77Irmw4LQixRagRODfJBu1laiicrpJs
TWsGJXHXXRa/CFGRgSgUrHkV5DnKzsr6kUzxYpyePYkSvUPHYhb5ffnIbs4EZbF5
NNGq8Ix49wdGD6c3sRMxtwUOTDuUNDcUBpQbK3+/FcBlSMxFDhpLGhpDeGSH1mNY
Tlt+X6myREn+NbES5kgM+QAYJpieuzJ4DH3U6hTySXltmrPNzr23Og3uvVzFFn6M
1YPkNN2mejazLwI9S7xegwo=
-----END CERTIFICATE-----
