Certificate:
    Data:
        Version: 3 (0x2)
        Serial Number: 30 (0x1e)
        Signature Algorithm: sha256WithRSAEncryption
        Issuer: O=advancedfiltering, OU=hosts, CN=Advanced Filtering CA
        Validity
            Not Before: Sep 14 18:43:58 2013 GMT
            Not After : Sep 12 18:43:58 2023 GMT
        Subject: O=advancedfiltering, OU=hosts, CN=fvds03.hosts.advancedfiltering.net
        Subject Public Key Info:
            Public Key Algorithm: rsaEncryption
            RSA Public Key: (2048 bit)
                Modulus (2048 bit):
                    00:ba:3e:b0:8b:88:23:46:85:d6:54:ec:f4:7f:b5:
                    12:d9:0d:f3:f7:66:19:04:cc:09:1e:e0:af:f9:13:
                    e0:63:81:78:f8:15:ec:93:c7:d5:0f:21:11:f5:93:
                    c8:a3:6f:4a:80:7d:f1:dc:c3:1f:da:a6:48:00:b1:
                    41:91:ee:7b:6c:67:a1:95:01:04:8b:15:e2:14:0a:
                    30:2e:35:0d:e0:0c:77:70:ea:3c:c9:22:cd:40:99:
                    fa:3f:83:81:57:44:c4:de:06:94:dd:e7:03:0c:1e:
                    1b:69:48:48:bc:3b:c3:31:bc:35:97:77:c6:8d:51:
                    e9:ba:73:f2:ab:54:eb:3a:7f:00:df:a8:ef:ce:27:
                    71:99:de:0e:fd:d3:01:80:5c:1b:e4:ab:8d:b7:32:
                    d0:91:c1:1a:9f:d3:72:d5:d8:77:be:24:6a:0d:87:
                    53:55:e4:96:bb:0c:81:37:85:c1:43:2a:c7:28:fd:
                    24:7c:c4:56:c3:0b:09:48:3e:b8:24:e2:59:c8:6e:
                    88:39:84:d8:7e:4b:ac:9e:f4:76:4b:f7:6f:d9:b3:
                    6a:98:00:a1:ee:a1:81:78:47:df:81:62:90:ef:23:
                    11:c6:04:d9:5e:fc:1d:42:60:b7:82:d8:6f:35:a1:
                    24:fc:d5:7f:d9:7d:d8:46:ee:c3:58:53:df:03:44:
                    b2:cd
                Exponent: 65537 (0x10001)
        X509v3 extensions:
            X509v3 Basic Constraints: 
                CA:FALSE
            X509v3 Subject Key Identifier: 
                EE:DC:95:4A:2D:E7:48:50:01:CC:54:DD:D3:B0:D3:E6:22:EE:CB:35
            X509v3 Authority Key Identifier: 
                keyid:C6:7C:3F:DA:E9:AC:6B:2F:A3:8F:26:03:15:0B:DC:65:08:51:98:9D
                DirName:/O=advancedfiltering/OU=hosts/CN=Advanced Filtering CA
                serial:8C:32:88:59:79:7B:3C:CC

            X509v3 Extended Key Usage: 
                TLS Web Server Authentication, TLS Web Client Authentication
            X509v3 Key Usage: 
                Digital Signature, Key Encipherment
            X509v3 CRL Distribution Points: 
                URI:http://deploy.hosts.advancedfiltering.net/public/ca-advancedfiltering.crl

            Authority Information Access: 
                CA Issuers - URI:http://deploy.hosts.advancedfiltering.net/public/ca-advancedfiltering.crt

    Signature Algorithm: sha256WithRSAEncryption
        23:48:fb:53:a2:6c:37:88:aa:b9:5a:b5:63:51:31:29:a3:f2:
        ce:e2:ae:b5:2e:9a:59:6c:1c:07:11:21:e0:98:b3:80:e3:10:
        f7:cb:3c:cd:43:5a:24:34:88:6e:cd:b3:c4:60:53:ab:fd:9f:
        1f:ba:50:07:0a:8d:0c:f7:4e:1a:5d:56:8c:6c:d2:52:32:ae:
        2e:0d:72:23:3d:8b:48:09:57:20:2b:d8:8d:0d:06:74:4e:95:
        cf:32:bd:a3:b7:8a:40:c8:6d:49:cb:a5:9c:8a:cf:84:58:e3:
        43:77:cf:17:63:02:f0:8a:79:01:71:4f:71:f8:0d:7a:8c:23:
        a5:9c:80:3d:35:61:02:25:d0:9b:8e:2c:ab:6b:05:c2:fa:8e:
        82:51:b4:6b:21:37:9b:51:de:57:18:20:da:ba:d6:14:d1:45:
        cd:b0:09:36:00:00:7a:d3:db:68:b1:64:07:49:9f:bb:6e:55:
        6c:8d:04:3e:61:aa:48:d3:49:58:6e:31:48:bb:cf:17:51:9b:
        a2:cc:c3:76:44:9d:0c:b6:0f:64:f9:50:8b:0f:5e:93:e3:1a:
        b6:b0:01:8d:5d:f2:f9:b4:43:26:1a:28:e1:39:ac:3d:91:90:
        15:73:89:16:1e:53:dc:23:9a:c0:9e:36:94:de:6e:df:72:79:
        59:9a:56:92
-----BEGIN CERTIFICATE-----
MIIEvTCCA6WgAwIBAgIBHjANBgkqhkiG9w0BAQsFADBMMRowGAYDVQQKExFhZHZh
bmNlZGZpbHRlcmluZzEOMAwGA1UECxMFaG9zdHMxHjAcBgNVBAMTFUFkdmFuY2Vk
IEZpbHRlcmluZyBDQTAeFw0xMzA5MTQxODQzNThaFw0yMzA5MTIxODQzNThaMFkx
GjAYBgNVBAoTEWFkdmFuY2VkZmlsdGVyaW5nMQ4wDAYDVQQLEwVob3N0czErMCkG
A1UEAxMiZnZkczAzLmhvc3RzLmFkdmFuY2VkZmlsdGVyaW5nLm5ldDCCASIwDQYJ
KoZIhvcNAQEBBQADggEPADCCAQoCggEBALo+sIuII0aF1lTs9H+1EtkN8/dmGQTM
CR7gr/kT4GOBePgV7JPH1Q8hEfWTyKNvSoB98dzDH9qmSACxQZHue2xnoZUBBIsV
4hQKMC41DeAMd3DqPMkizUCZ+j+DgVdExN4GlN3nAwweG2lISLw7wzG8NZd3xo1R
6bpz8qtU6zp/AN+o784ncZneDv3TAYBcG+Srjbcy0JHBGp/TctXYd74kag2HU1Xk
lrsMgTeFwUMqxyj9JHzEVsMLCUg+uCTiWchuiDmE2H5LrJ70dkv3b9mzapgAoe6h
gXhH34FikO8jEcYE2V78HUJgt4LYbzWhJPzVf9l92Ebuw1hT3wNEss0CAwEAAaOC
AZswggGXMAkGA1UdEwQCMAAwHQYDVR0OBBYEFO7clUot50hQAcxU3dOw0+Yi7ss1
MHwGA1UdIwR1MHOAFMZ8P9rprGsvo48mAxUL3GUIUZidoVCkTjBMMRowGAYDVQQK
ExFhZHZhbmNlZGZpbHRlcmluZzEOMAwGA1UECxMFaG9zdHMxHjAcBgNVBAMTFUFk
dmFuY2VkIEZpbHRlcmluZyBDQYIJAIwyiFl5ezzMMB0GA1UdJQQWMBQGCCsGAQUF
BwMBBggrBgEFBQcDAjALBgNVHQ8EBAMCBaAwWgYDVR0fBFMwUTBPoE2gS4ZJaHR0
cDovL2RlcGxveS5ob3N0cy5hZHZhbmNlZGZpbHRlcmluZy5uZXQvcHVibGljL2Nh
LWFkdmFuY2VkZmlsdGVyaW5nLmNybDBlBggrBgEFBQcBAQRZMFcwVQYIKwYBBQUH
MAKGSWh0dHA6Ly9kZXBsb3kuaG9zdHMuYWR2YW5jZWRmaWx0ZXJpbmcubmV0L3B1
YmxpYy9jYS1hZHZhbmNlZGZpbHRlcmluZy5jcnQwDQYJKoZIhvcNAQELBQADggEB
ACNI+1OibDeIqrlatWNRMSmj8s7irrUumllsHAcRIeCYs4DjEPfLPM1DWiQ0iG7N
s8RgU6v9nx+6UAcKjQz3ThpdVoxs0lIyri4NciM9i0gJVyAr2I0NBnROlc8yvaO3
ikDIbUnLpZyKz4RY40N3zxdjAvCKeQFxT3H4DXqMI6WcgD01YQIl0JuOLKtrBcL6
joJRtGshN5tR3lcYINq61hTRRc2wCTYAAHrT22ixZAdJn7tuVWyNBD5hqkjTSVhu
MUi7zxdRm6LMw3ZEnQy2D2T5UIsPXpPjGrawAY1d8vm0QyYaKOE5rD2RkBVziRYe
U9wjmsCeNpTebt9yeVmaVpI=
-----END CERTIFICATE-----
