Certificate:
    Data:
        Version: 3 (0x2)
        Serial Number: 31 (0x1f)
        Signature Algorithm: sha256WithRSAEncryption
        Issuer: O=advancedfiltering, OU=hosts, CN=Advanced Filtering CA
        Validity
            Not Before: Oct  3 18:30:50 2013 GMT
            Not After : Oct  1 18:30:50 2023 GMT
        Subject: O=advancedfiltering, OU=hosts, CN=ru.hosts.advancedfiltering.net
        Subject Public Key Info:
            Public Key Algorithm: rsaEncryption
            RSA Public Key: (2048 bit)
                Modulus (2048 bit):
                    00:b1:05:8d:27:2b:fa:08:42:31:b8:5f:d3:d2:65:
                    ad:62:78:48:31:5a:72:3c:24:8d:83:f3:b8:2e:75:
                    7d:7a:97:02:85:d6:7b:e2:65:06:6a:d3:36:d9:e8:
                    96:91:5e:1e:d7:d5:b0:fe:c5:b6:c6:dd:4a:cc:f6:
                    27:c8:86:39:d4:20:85:b1:17:6f:28:bf:c2:09:c4:
                    4d:2a:6f:67:7b:01:5c:e8:8b:60:e3:50:23:a7:fe:
                    fb:19:f7:93:73:a0:f5:79:85:26:26:7a:9e:99:43:
                    55:c6:df:c2:9f:68:ac:44:70:8a:4e:c8:e4:00:43:
                    89:de:ce:b3:d5:d9:bb:d8:3f:33:5f:69:51:23:06:
                    66:74:89:b4:83:5e:a1:4c:67:cb:62:f9:32:49:ef:
                    a5:3b:cf:b4:5e:0d:a7:89:11:95:8e:95:7e:05:47:
                    9b:f5:92:1f:95:25:1e:cb:a4:67:6c:7f:64:26:ca:
                    bc:e9:0d:39:37:4a:7e:7d:49:e8:fe:61:fe:aa:de:
                    58:0a:ab:bc:a9:44:91:96:5a:3a:0c:0a:4d:27:b8:
                    7a:d0:48:00:db:93:6e:07:08:6a:26:c9:de:49:2e:
                    42:d3:2d:1f:b1:69:8a:85:93:d1:18:34:e1:c4:4b:
                    0f:22:b0:02:1b:95:e0:be:b1:b0:48:e1:d8:8d:ca:
                    9a:5b
                Exponent: 65537 (0x10001)
        X509v3 extensions:
            X509v3 Basic Constraints: 
                CA:FALSE
            X509v3 Subject Key Identifier: 
                43:2D:9F:71:54:3F:4A:10:ED:B1:3E:A0:89:77:90:C7:43:54:74:90
            X509v3 Authority Key Identifier: 
                keyid:C6:7C:3F:DA:E9:AC:6B:2F:A3:8F:26:03:15:0B:DC:65:08:51:98:9D
                DirName:/O=advancedfiltering/OU=hosts/CN=Advanced Filtering CA
                serial:8C:32:88:59:79:7B:3C:CC

            X509v3 Extended Key Usage: 
                TLS Web Server Authentication, TLS Web Client Authentication
            X509v3 Key Usage: 
                Digital Signature, Key Encipherment
            X509v3 CRL Distribution Points: 
                URI:http://deploy.hosts.advancedfiltering.net/public/ca-advancedfiltering.crl

            Authority Information Access: 
                CA Issuers - URI:http://deploy.hosts.advancedfiltering.net/public/ca-advancedfiltering.crt

    Signature Algorithm: sha256WithRSAEncryption
        79:6e:62:28:34:1f:7c:83:49:84:e0:2e:ab:7d:14:1a:ed:b2:
        ce:28:d5:88:44:a4:a2:24:c5:d8:a4:53:78:97:e8:9c:28:b5:
        4e:2e:7f:d9:9a:76:42:ca:2d:95:2b:a9:13:1c:f3:df:42:9c:
        af:ff:66:9a:59:87:79:4c:2a:9c:99:95:a2:84:02:1a:a1:64:
        c9:f5:44:9d:62:37:30:16:5f:36:33:29:67:f8:04:f7:19:70:
        01:91:93:0b:d7:b7:54:86:4c:10:1d:6a:f0:2f:29:50:73:61:
        f7:03:8b:c8:b7:cf:dc:09:3e:5e:69:f3:1a:42:af:53:e1:7c:
        ff:39:1d:0d:02:a1:3d:71:b2:3f:d3:1b:7d:0a:58:30:40:56:
        e0:00:39:d6:63:6e:0a:6f:a2:2e:12:42:12:ac:1f:38:1c:b9:
        e5:9b:a1:c5:4c:ef:e0:82:71:ad:be:85:ee:f9:22:fe:c5:22:
        0f:43:de:01:92:81:9e:35:e9:89:e6:0f:f0:f7:95:58:bc:c9:
        4c:e4:b3:4c:0a:ad:2f:04:95:f6:7f:8e:81:0c:6e:e2:3c:5c:
        48:35:9a:04:6f:7d:eb:b2:15:57:6f:e7:b7:b3:53:81:41:c8:
        fd:07:7e:b1:03:8f:25:96:e9:76:db:12:81:91:f0:a4:4f:4c:
        b7:45:36:25
-----BEGIN CERTIFICATE-----
MIIEuTCCA6GgAwIBAgIBHzANBgkqhkiG9w0BAQsFADBMMRowGAYDVQQKExFhZHZh
bmNlZGZpbHRlcmluZzEOMAwGA1UECxMFaG9zdHMxHjAcBgNVBAMTFUFkdmFuY2Vk
IEZpbHRlcmluZyBDQTAeFw0xMzEwMDMxODMwNTBaFw0yMzEwMDExODMwNTBaMFUx
GjAYBgNVBAoTEWFkdmFuY2VkZmlsdGVyaW5nMQ4wDAYDVQQLEwVob3N0czEnMCUG
A1UEAxMecnUuaG9zdHMuYWR2YW5jZWRmaWx0ZXJpbmcubmV0MIIBIjANBgkqhkiG
9w0BAQEFAAOCAQ8AMIIBCgKCAQEAsQWNJyv6CEIxuF/T0mWtYnhIMVpyPCSNg/O4
LnV9epcChdZ74mUGatM22eiWkV4e19Ww/sW2xt1KzPYnyIY51CCFsRdvKL/CCcRN
Km9newFc6Itg41Ajp/77GfeTc6D1eYUmJnqemUNVxt/Cn2isRHCKTsjkAEOJ3s6z
1dm72D8zX2lRIwZmdIm0g16hTGfLYvkySe+lO8+0Xg2niRGVjpV+BUeb9ZIflSUe
y6RnbH9kJsq86Q05N0p+fUno/mH+qt5YCqu8qUSRllo6DApNJ7h60EgA25NuBwhq
JsneSS5C0y0fsWmKhZPRGDThxEsPIrACG5XgvrGwSOHYjcqaWwIDAQABo4IBmzCC
AZcwCQYDVR0TBAIwADAdBgNVHQ4EFgQUQy2fcVQ/ShDtsT6giXeQx0NUdJAwfAYD
VR0jBHUwc4AUxnw/2umsay+jjyYDFQvcZQhRmJ2hUKROMEwxGjAYBgNVBAoTEWFk
dmFuY2VkZmlsdGVyaW5nMQ4wDAYDVQQLEwVob3N0czEeMBwGA1UEAxMVQWR2YW5j
ZWQgRmlsdGVyaW5nIENBggkAjDKIWXl7PMwwHQYDVR0lBBYwFAYIKwYBBQUHAwEG
CCsGAQUFBwMCMAsGA1UdDwQEAwIFoDBaBgNVHR8EUzBRME+gTaBLhklodHRwOi8v
ZGVwbG95Lmhvc3RzLmFkdmFuY2VkZmlsdGVyaW5nLm5ldC9wdWJsaWMvY2EtYWR2
YW5jZWRmaWx0ZXJpbmcuY3JsMGUGCCsGAQUFBwEBBFkwVzBVBggrBgEFBQcwAoZJ
aHR0cDovL2RlcGxveS5ob3N0cy5hZHZhbmNlZGZpbHRlcmluZy5uZXQvcHVibGlj
L2NhLWFkdmFuY2VkZmlsdGVyaW5nLmNydDANBgkqhkiG9w0BAQsFAAOCAQEAeW5i
KDQffINJhOAuq30UGu2yzijViESkoiTF2KRTeJfonCi1Ti5/2Zp2QsotlSupExzz
30Kcr/9mmlmHeUwqnJmVooQCGqFkyfVEnWI3MBZfNjMpZ/gE9xlwAZGTC9e3VIZM
EB1q8C8pUHNh9wOLyLfP3Ak+XmnzGkKvU+F8/zkdDQKhPXGyP9MbfQpYMEBW4AA5
1mNuCm+iLhJCEqwfOBy55ZuhxUzv4IJxrb6F7vki/sUiD0PeAZKBnjXpieYP8PeV
WLzJTOSzTAqtLwSV9n+OgQxu4jxcSDWaBG9967IVV2/nt7NTgUHI/Qd+sQOPJZbp
dtsSgZHwpE9Mt0U2JQ==
-----END CERTIFICATE-----
