Certificate:
    Data:
        Version: 3 (0x2)
        Serial Number: 25 (0x19)
        Signature Algorithm: sha256WithRSAEncryption
        Issuer: O=advancedfiltering, OU=hosts, CN=Advanced Filtering CA
        Validity
            Not Before: Sep 14 18:21:44 2013 GMT
            Not After : Sep 12 18:21:44 2023 GMT
        Subject: O=advancedfiltering, OU=hosts, CN=fvds05.hosts.advancedfiltering.net
        Subject Public Key Info:
            Public Key Algorithm: rsaEncryption
            RSA Public Key: (2048 bit)
                Modulus (2048 bit):
                    00:c9:6c:fa:6c:54:3d:3c:8c:91:e2:b9:82:40:a9:
                    50:e9:38:67:7e:1f:7f:69:a7:55:41:d1:cd:d5:4a:
                    ac:57:c0:21:c0:90:83:1c:0e:a4:3d:83:cb:95:8f:
                    ca:11:d3:5c:da:72:ab:6d:d4:f2:7a:16:e3:0f:79:
                    51:99:77:7f:0e:24:12:d0:e6:ed:72:3f:ca:31:9f:
                    51:81:13:18:04:a9:df:04:dd:e2:ad:07:c4:7c:eb:
                    9c:5a:12:61:52:4c:1a:03:ad:17:d3:93:6b:40:68:
                    05:cf:f6:8e:2c:30:d7:10:1b:31:19:e7:53:0c:1f:
                    75:a9:eb:99:a8:84:39:9e:a1:bf:16:d3:36:66:a1:
                    2d:94:66:9c:b7:f6:82:6b:8b:05:af:65:3c:ed:c6:
                    ff:71:97:82:ea:fe:a9:fa:d9:42:e5:ef:a6:52:0e:
                    25:91:16:8d:f2:42:ef:e2:24:03:fd:7b:ea:c1:39:
                    93:c1:de:68:49:95:4e:ff:5b:9f:6e:3b:f7:0d:1d:
                    e6:77:76:ab:43:87:54:9f:7b:f7:26:48:c2:89:2e:
                    cd:1a:a2:3a:50:76:c2:3c:08:df:ff:18:96:3b:b4:
                    c5:28:39:6f:bb:43:95:dc:41:68:54:e3:61:ac:29:
                    69:96:d4:70:1f:c3:34:8d:0e:6f:38:65:32:c7:b2:
                    04:d3
                Exponent: 65537 (0x10001)
        X509v3 extensions:
            X509v3 Basic Constraints: 
                CA:FALSE
            X509v3 Subject Key Identifier: 
                91:15:9E:6D:84:25:D2:3B:74:24:73:18:44:E7:C8:65:4C:09:1B:36
            X509v3 Authority Key Identifier: 
                keyid:C6:7C:3F:DA:E9:AC:6B:2F:A3:8F:26:03:15:0B:DC:65:08:51:98:9D
                DirName:/O=advancedfiltering/OU=hosts/CN=Advanced Filtering CA
                serial:8C:32:88:59:79:7B:3C:CC

            X509v3 Extended Key Usage: 
                TLS Web Server Authentication, TLS Web Client Authentication
            X509v3 Key Usage: 
                Digital Signature, Key Encipherment
            X509v3 CRL Distribution Points: 
                URI:http://deploy.hosts.advancedfiltering.net/public/ca-advancedfiltering.crl

            Authority Information Access: 
                CA Issuers - URI:http://deploy.hosts.advancedfiltering.net/public/ca-advancedfiltering.crt

    Signature Algorithm: sha256WithRSAEncryption
        82:75:99:37:0b:42:1e:9d:f8:f5:cb:91:81:c4:9a:a6:26:de:
        61:9b:96:cc:dd:4e:2a:e6:33:13:bd:59:14:1b:51:16:60:0c:
        15:53:24:67:9a:cd:c2:16:d4:16:2f:8c:dd:a0:76:b2:79:f3:
        b5:f6:67:84:fd:90:5a:4f:2d:8f:c4:37:d8:eb:11:7b:d1:c1:
        c8:b2:5b:b4:37:d9:b8:fa:1e:2e:ce:35:05:19:6b:cf:f4:23:
        bf:61:40:74:7f:0e:fa:e8:78:13:c6:67:79:99:23:79:3d:b0:
        27:09:5e:74:65:a4:ab:30:d3:17:fd:f5:ce:98:ce:7c:7b:d5:
        1f:04:32:11:2a:df:7e:0a:ca:f9:2e:88:19:dd:09:33:18:5c:
        1a:ae:b3:df:18:34:78:dd:7a:12:4e:e8:87:4d:b3:19:cc:b0:
        ad:b7:61:38:05:db:ae:81:1f:46:fb:18:83:ea:37:60:e8:f8:
        60:91:5f:26:a8:f3:63:2f:e4:40:d2:ee:c8:90:e7:b6:45:12:
        67:6f:46:03:d2:61:8c:ab:9d:dd:51:6e:b0:89:67:fc:6e:82:
        66:ef:1a:b0:90:20:e9:ed:cf:f5:68:42:98:08:df:68:8e:15:
        4a:a3:5c:4d:d8:31:24:5a:5b:fd:b7:1f:a1:16:97:af:b8:8f:
        f2:9e:7b:55
-----BEGIN CERTIFICATE-----
MIIEvTCCA6WgAwIBAgIBGTANBgkqhkiG9w0BAQsFADBMMRowGAYDVQQKExFhZHZh
bmNlZGZpbHRlcmluZzEOMAwGA1UECxMFaG9zdHMxHjAcBgNVBAMTFUFkdmFuY2Vk
IEZpbHRlcmluZyBDQTAeFw0xMzA5MTQxODIxNDRaFw0yMzA5MTIxODIxNDRaMFkx
GjAYBgNVBAoTEWFkdmFuY2VkZmlsdGVyaW5nMQ4wDAYDVQQLEwVob3N0czErMCkG
A1UEAxMiZnZkczA1Lmhvc3RzLmFkdmFuY2VkZmlsdGVyaW5nLm5ldDCCASIwDQYJ
KoZIhvcNAQEBBQADggEPADCCAQoCggEBAMls+mxUPTyMkeK5gkCpUOk4Z34ff2mn
VUHRzdVKrFfAIcCQgxwOpD2Dy5WPyhHTXNpyq23U8noW4w95UZl3fw4kEtDm7XI/
yjGfUYETGASp3wTd4q0HxHzrnFoSYVJMGgOtF9OTa0BoBc/2jiww1xAbMRnnUwwf
danrmaiEOZ6hvxbTNmahLZRmnLf2gmuLBa9lPO3G/3GXgur+qfrZQuXvplIOJZEW
jfJC7+IkA/176sE5k8HeaEmVTv9bn2479w0d5nd2q0OHVJ979yZIwokuzRqiOlB2
wjwI3/8Ylju0xSg5b7tDldxBaFTjYawpaZbUcB/DNI0ObzhlMseyBNMCAwEAAaOC
AZswggGXMAkGA1UdEwQCMAAwHQYDVR0OBBYEFJEVnm2EJdI7dCRzGETnyGVMCRs2
MHwGA1UdIwR1MHOAFMZ8P9rprGsvo48mAxUL3GUIUZidoVCkTjBMMRowGAYDVQQK
ExFhZHZhbmNlZGZpbHRlcmluZzEOMAwGA1UECxMFaG9zdHMxHjAcBgNVBAMTFUFk
dmFuY2VkIEZpbHRlcmluZyBDQYIJAIwyiFl5ezzMMB0GA1UdJQQWMBQGCCsGAQUF
BwMBBggrBgEFBQcDAjALBgNVHQ8EBAMCBaAwWgYDVR0fBFMwUTBPoE2gS4ZJaHR0
cDovL2RlcGxveS5ob3N0cy5hZHZhbmNlZGZpbHRlcmluZy5uZXQvcHVibGljL2Nh
LWFkdmFuY2VkZmlsdGVyaW5nLmNybDBlBggrBgEFBQcBAQRZMFcwVQYIKwYBBQUH
MAKGSWh0dHA6Ly9kZXBsb3kuaG9zdHMuYWR2YW5jZWRmaWx0ZXJpbmcubmV0L3B1
YmxpYy9jYS1hZHZhbmNlZGZpbHRlcmluZy5jcnQwDQYJKoZIhvcNAQELBQADggEB
AIJ1mTcLQh6d+PXLkYHEmqYm3mGblszdTirmMxO9WRQbURZgDBVTJGeazcIW1BYv
jN2gdrJ587X2Z4T9kFpPLY/EN9jrEXvRwciyW7Q32bj6Hi7ONQUZa8/0I79hQHR/
DvroeBPGZ3mZI3k9sCcJXnRlpKsw0xf99c6Yznx71R8EMhEq334KyvkuiBndCTMY
XBqus98YNHjdehJO6IdNsxnMsK23YTgF266BH0b7GIPqN2Do+GCRXyao82Mv5EDS
7siQ57ZFEmdvRgPSYYyrnd1RbrCJZ/xugmbvGrCQIOntz/VoQpgI32iOFUqjXE3Y
MSRaW/23H6EWl6+4j/Kee1U=
-----END CERTIFICATE-----
