Certificate:
    Data:
        Version: 3 (0x2)
        Serial Number: 36 (0x24)
    Signature Algorithm: sha256WithRSAEncryption
        Issuer: O=advancedfiltering, OU=hosts, CN=Advanced Filtering CA
        Validity
            Not Before: Nov 17 09:39:25 2014 GMT
            Not After : Nov 14 09:39:25 2024 GMT
        Subject: O=advancedfiltering, OU=hosts, CN=submission.services.advancedfiltering.net
        Subject Public Key Info:
            Public Key Algorithm: rsaEncryption
                Public-Key: (2048 bit)
                Modulus:
                    00:ad:ff:48:49:1c:f4:8d:70:63:42:66:45:46:03:
                    2c:d8:d5:3f:2c:7a:81:3a:c5:c6:6c:b4:83:6a:f2:
                    e6:36:be:09:48:66:2f:25:65:d0:64:27:02:d5:e0:
                    d3:70:49:de:cf:5d:29:59:a9:67:86:d5:67:01:06:
                    1e:36:64:de:bd:4b:37:00:c4:1f:3d:b6:56:7a:da:
                    52:fa:a7:85:77:d3:fb:63:fd:60:df:07:fc:66:e1:
                    a6:38:bc:d2:c3:15:10:3e:9f:c2:87:e7:b2:2d:c1:
                    2c:e4:83:71:60:14:86:e1:b4:8a:3b:37:d3:eb:e0:
                    a6:78:d3:35:39:ed:4b:f2:51:ca:e7:f4:69:5e:9f:
                    d5:0f:9e:86:a2:eb:05:b0:db:b6:6c:a2:f0:ba:59:
                    8b:07:53:24:b0:8b:fe:3a:31:d1:56:1e:09:e3:8d:
                    13:08:3c:be:31:67:e5:67:39:13:95:34:d7:fe:d4:
                    45:1c:db:68:1c:14:7f:0a:41:c9:da:ec:1c:16:4f:
                    5c:86:aa:f5:8f:9b:5f:96:71:15:d1:c5:13:b8:f2:
                    d8:be:50:a7:cd:6b:14:fe:a2:6b:b3:15:21:c9:a6:
                    01:1b:a3:cf:d6:08:fa:81:57:56:08:4d:d6:a8:bf:
                    91:23:d1:dd:c2:b6:bf:23:6e:e8:37:28:05:d2:6b:
                    c3:05
                Exponent: 65537 (0x10001)
        X509v3 extensions:
            X509v3 Basic Constraints: 
                CA:FALSE
            X509v3 Subject Key Identifier: 
                11:7D:41:3C:33:FF:0C:0D:31:65:20:CF:1E:C8:3B:43:58:49:A5:10
            X509v3 Authority Key Identifier: 
                keyid:C6:7C:3F:DA:E9:AC:6B:2F:A3:8F:26:03:15:0B:DC:65:08:51:98:9D
                DirName:/O=advancedfiltering/OU=hosts/CN=Advanced Filtering CA
                serial:8C:32:88:59:79:7B:3C:CC

            X509v3 Extended Key Usage: 
                TLS Web Server Authentication, TLS Web Client Authentication
            X509v3 Key Usage: 
                Digital Signature, Key Encipherment
            X509v3 CRL Distribution Points: 

                Full Name:
                  URI:http://deploy.services.advancedfiltering.net/public/ca-advancedfiltering.crl

            Authority Information Access: 
                CA Issuers - URI:http://deploy.services.advancedfiltering.net/public/ca-advancedfiltering.crt

    Signature Algorithm: sha256WithRSAEncryption
         03:d1:ac:44:05:61:93:30:51:c9:19:c5:0c:99:71:9a:1a:bd:
         e8:7f:cd:4f:e7:ce:cd:93:0b:72:07:ec:36:cf:e1:db:2e:62:
         72:6e:bf:dd:38:fd:33:c0:e0:e1:3c:8c:27:ff:e2:03:57:43:
         a9:a2:00:75:f1:12:07:e0:d9:20:e0:8b:62:81:96:6c:db:2c:
         96:58:cf:8a:04:d7:c0:7c:ff:de:99:83:b4:88:15:64:ce:e9:
         fc:a7:0d:1e:16:d8:2c:aa:10:1d:22:bb:85:37:fd:eb:39:3f:
         ac:e1:15:b3:fc:d8:81:3b:a5:c1:22:32:81:f8:b3:3c:f4:98:
         b4:06:0b:31:16:68:22:61:1f:99:80:9b:83:c3:f6:2e:cd:6b:
         a1:a5:02:ad:86:7b:9f:55:c3:9a:90:16:06:b8:f0:84:e5:6c:
         bb:2a:1b:3f:0a:c4:6f:38:ec:87:d6:a2:94:15:b9:f8:a4:3b:
         8e:d7:c2:45:bb:5b:89:50:d6:84:2f:8d:b6:5e:6f:71:de:5a:
         e3:d5:7f:fc:d7:ef:a9:b9:69:75:75:a2:d4:6a:56:67:b9:5f:
         af:69:00:24:2b:1a:5c:5c:17:bb:87:4b:d7:fa:c1:c6:c0:95:
         09:66:49:6b:56:90:ec:7e:6d:a2:f5:2e:69:e7:73:e7:33:6e:
         2c:d1:37:5e
-----BEGIN CERTIFICATE-----
MIIEyjCCA7KgAwIBAgIBJDANBgkqhkiG9w0BAQsFADBMMRowGAYDVQQKExFhZHZh
bmNlZGZpbHRlcmluZzEOMAwGA1UECxMFaG9zdHMxHjAcBgNVBAMTFUFkdmFuY2Vk
IEZpbHRlcmluZyBDQTAeFw0xNDExMTcwOTM5MjVaFw0yNDExMTQwOTM5MjVaMGAx
GjAYBgNVBAoTEWFkdmFuY2VkZmlsdGVyaW5nMQ4wDAYDVQQLEwVob3N0czEyMDAG
A1UEAxMpc3VibWlzc2lvbi5zZXJ2aWNlcy5hZHZhbmNlZGZpbHRlcmluZy5uZXQw
ggEiMA0GCSqGSIb3DQEBAQUAA4IBDwAwggEKAoIBAQCt/0hJHPSNcGNCZkVGAyzY
1T8seoE6xcZstINq8uY2vglIZi8lZdBkJwLV4NNwSd7PXSlZqWeG1WcBBh42ZN69
SzcAxB89tlZ62lL6p4V30/tj/WDfB/xm4aY4vNLDFRA+n8KH57ItwSzkg3FgFIbh
tIo7N9Pr4KZ40zU57UvyUcrn9Glen9UPnoai6wWw27ZsovC6WYsHUySwi/46MdFW
HgnjjRMIPL4xZ+VnOROVNNf+1EUc22gcFH8KQcna7BwWT1yGqvWPm1+WcRXRxRO4
8ti+UKfNaxT+omuzFSHJpgEbo8/WCPqBV1YITdaov5Ej0d3Ctr8jbug3KAXSa8MF
AgMBAAGjggGhMIIBnTAJBgNVHRMEAjAAMB0GA1UdDgQWBBQRfUE8M/8MDTFlIM8e
yDtDWEmlEDB8BgNVHSMEdTBzgBTGfD/a6axrL6OPJgMVC9xlCFGYnaFQpE4wTDEa
MBgGA1UEChMRYWR2YW5jZWRmaWx0ZXJpbmcxDjAMBgNVBAsTBWhvc3RzMR4wHAYD
VQQDExVBZHZhbmNlZCBGaWx0ZXJpbmcgQ0GCCQCMMohZeXs8zDAdBgNVHSUEFjAU
BggrBgEFBQcDAQYIKwYBBQUHAwIwCwYDVR0PBAQDAgWgMF0GA1UdHwRWMFQwUqBQ
oE6GTGh0dHA6Ly9kZXBsb3kuc2VydmljZXMuYWR2YW5jZWRmaWx0ZXJpbmcubmV0
L3B1YmxpYy9jYS1hZHZhbmNlZGZpbHRlcmluZy5jcmwwaAYIKwYBBQUHAQEEXDBa
MFgGCCsGAQUFBzAChkxodHRwOi8vZGVwbG95LnNlcnZpY2VzLmFkdmFuY2VkZmls
dGVyaW5nLm5ldC9wdWJsaWMvY2EtYWR2YW5jZWRmaWx0ZXJpbmcuY3J0MA0GCSqG
SIb3DQEBCwUAA4IBAQAD0axEBWGTMFHJGcUMmXGaGr3of81P587NkwtyB+w2z+Hb
LmJybr/dOP0zwODhPIwn/+IDV0OpogB18RIH4Nkg4ItigZZs2yyWWM+KBNfAfP/e
mYO0iBVkzun8pw0eFtgsqhAdIruFN/3rOT+s4RWz/NiBO6XBIjKB+LM89Ji0Bgsx
FmgiYR+ZgJuDw/YuzWuhpQKthnufVcOakBYGuPCE5Wy7Khs/CsRvOOyH1qKUFbn4
pDuO18JFu1uJUNaEL422Xm9x3lrj1X/81++puWl1daLUalZnuV+vaQAkKxpcXBe7
h0vX+sHGwJUJZklrVpDsfm2i9S5p53PnM24s0Tde
-----END CERTIFICATE-----
