Certificate:
    Data:
        Version: 3 (0x2)
        Serial Number: 32 (0x20)
        Signature Algorithm: sha256WithRSAEncryption
        Issuer: O=advancedfiltering, OU=hosts, CN=Advanced Filtering CA
        Validity
            Not Before: Nov 18 20:09:41 2013 GMT
            Not After : Nov 16 20:09:41 2023 GMT
        Subject: O=advancedfiltering, OU=hosts, CN=test02.hosts.advancedfiltering.net
        Subject Public Key Info:
            Public Key Algorithm: rsaEncryption
            RSA Public Key: (2048 bit)
                Modulus (2048 bit):
                    00:ba:fe:5e:9c:9d:6c:9d:22:e7:6e:ee:b1:0a:ea:
                    a0:d1:99:0d:9f:40:3f:1d:7c:8a:0c:06:3f:b6:a5:
                    5d:9b:38:33:ce:ef:0f:d7:a0:55:79:00:2c:d6:8c:
                    e8:5d:57:ac:b4:da:e9:69:02:0f:c0:3a:c1:80:a3:
                    6a:c9:e8:8d:f6:07:05:d1:7e:60:de:c5:54:0b:34:
                    34:4e:9e:dd:89:97:f0:42:af:80:e1:36:86:a6:0f:
                    75:9f:8d:13:8b:ef:9e:4f:61:e1:c0:7e:9e:7f:34:
                    31:22:49:4e:48:6e:f0:b5:1f:fd:a1:41:eb:e1:72:
                    9c:97:f5:ff:fb:9c:2c:e3:a2:c5:ea:e3:93:e2:bd:
                    8b:9f:25:6b:db:41:50:1a:4f:26:2a:37:4d:36:e1:
                    14:b9:cc:a2:be:e5:b1:4c:fe:1d:35:22:84:cc:68:
                    a7:4e:9c:83:0c:a0:e2:08:9b:a2:a1:fa:8f:ef:20:
                    4c:58:fb:3f:7f:cf:1b:88:a0:f9:f8:8c:1c:7f:8c:
                    b7:86:9f:af:b5:3f:c5:bc:82:9a:90:e9:61:02:5f:
                    82:67:c9:9e:f5:12:99:33:a6:d9:a5:95:ef:6c:6c:
                    88:4c:fd:fb:31:bf:d1:58:2b:d8:ed:a5:ca:04:68:
                    97:62:b8:1b:6c:ea:48:81:9f:77:81:d9:70:24:79:
                    bc:21
                Exponent: 65537 (0x10001)
        X509v3 extensions:
            X509v3 Basic Constraints: 
                CA:FALSE
            X509v3 Subject Key Identifier: 
                3D:4E:93:73:77:87:D1:FC:A4:6C:EF:E1:92:26:F2:FA:46:99:86:8D
            X509v3 Authority Key Identifier: 
                keyid:C6:7C:3F:DA:E9:AC:6B:2F:A3:8F:26:03:15:0B:DC:65:08:51:98:9D
                DirName:/O=advancedfiltering/OU=hosts/CN=Advanced Filtering CA
                serial:8C:32:88:59:79:7B:3C:CC

            X509v3 Extended Key Usage: 
                TLS Web Server Authentication, TLS Web Client Authentication
            X509v3 Key Usage: 
                Digital Signature, Key Encipherment
            X509v3 CRL Distribution Points: 
                URI:http://deploy.hosts.advancedfiltering.net/public/ca-advancedfiltering.crl

            Authority Information Access: 
                CA Issuers - URI:http://deploy.hosts.advancedfiltering.net/public/ca-advancedfiltering.crt

    Signature Algorithm: sha256WithRSAEncryption
        0d:ee:e0:0b:32:cc:48:2e:86:c9:55:6d:41:3f:bb:7d:67:a2:
        a7:37:06:96:d3:82:7d:c6:cb:af:bc:70:37:95:41:06:6e:0a:
        90:1c:1f:d8:c1:7a:17:50:90:10:a1:30:03:51:51:ee:44:76:
        94:86:60:11:f0:5d:5a:70:e3:b5:33:e3:79:be:bf:bc:49:87:
        b2:2e:49:52:0e:1d:1e:72:3b:f1:57:66:29:74:2a:78:44:b7:
        6d:3d:27:99:e1:55:b1:51:65:10:e9:30:08:c6:d5:41:d0:63:
        df:0c:01:1b:06:56:45:ab:55:51:f0:94:08:72:66:0a:99:34:
        4d:58:a6:d2:3e:4b:05:2d:42:c6:93:ca:07:74:5d:f5:e9:5f:
        6b:8b:0d:98:91:27:63:2b:57:9a:27:34:06:be:52:88:3c:76:
        c2:0f:4a:08:33:39:a1:95:d9:7e:c8:10:cf:f7:a1:89:d8:21:
        2e:e0:1a:c3:61:69:d5:56:f1:5d:d5:a8:4a:19:11:fb:34:24:
        d3:f8:97:0b:f4:02:b9:f7:0e:2f:5e:36:dd:b0:fe:37:03:ff:
        e8:e4:03:1f:ac:45:54:c1:ae:65:7e:99:c5:a5:45:f9:f9:be:
        16:a5:60:86:f1:e0:0c:8d:b2:ea:db:39:00:90:9a:86:ae:08:
        bb:32:7a:d0
-----BEGIN CERTIFICATE-----
MIIEvTCCA6WgAwIBAgIBIDANBgkqhkiG9w0BAQsFADBMMRowGAYDVQQKExFhZHZh
bmNlZGZpbHRlcmluZzEOMAwGA1UECxMFaG9zdHMxHjAcBgNVBAMTFUFkdmFuY2Vk
IEZpbHRlcmluZyBDQTAeFw0xMzExMTgyMDA5NDFaFw0yMzExMTYyMDA5NDFaMFkx
GjAYBgNVBAoTEWFkdmFuY2VkZmlsdGVyaW5nMQ4wDAYDVQQLEwVob3N0czErMCkG
A1UEAxMidGVzdDAyLmhvc3RzLmFkdmFuY2VkZmlsdGVyaW5nLm5ldDCCASIwDQYJ
KoZIhvcNAQEBBQADggEPADCCAQoCggEBALr+XpydbJ0i527usQrqoNGZDZ9APx18
igwGP7alXZs4M87vD9egVXkALNaM6F1XrLTa6WkCD8A6wYCjasnojfYHBdF+YN7F
VAs0NE6e3YmX8EKvgOE2hqYPdZ+NE4vvnk9h4cB+nn80MSJJTkhu8LUf/aFB6+Fy
nJf1//ucLOOixerjk+K9i58la9tBUBpPJio3TTbhFLnMor7lsUz+HTUihMxop06c
gwyg4giboqH6j+8gTFj7P3/PG4ig+fiMHH+Mt4afr7U/xbyCmpDpYQJfgmfJnvUS
mTOm2aWV72xsiEz9+zG/0Vgr2O2lygRol2K4G2zqSIGfd4HZcCR5vCECAwEAAaOC
AZswggGXMAkGA1UdEwQCMAAwHQYDVR0OBBYEFD1Ok3N3h9H8pGzv4ZIm8vpGmYaN
MHwGA1UdIwR1MHOAFMZ8P9rprGsvo48mAxUL3GUIUZidoVCkTjBMMRowGAYDVQQK
ExFhZHZhbmNlZGZpbHRlcmluZzEOMAwGA1UECxMFaG9zdHMxHjAcBgNVBAMTFUFk
dmFuY2VkIEZpbHRlcmluZyBDQYIJAIwyiFl5ezzMMB0GA1UdJQQWMBQGCCsGAQUF
BwMBBggrBgEFBQcDAjALBgNVHQ8EBAMCBaAwWgYDVR0fBFMwUTBPoE2gS4ZJaHR0
cDovL2RlcGxveS5ob3N0cy5hZHZhbmNlZGZpbHRlcmluZy5uZXQvcHVibGljL2Nh
LWFkdmFuY2VkZmlsdGVyaW5nLmNybDBlBggrBgEFBQcBAQRZMFcwVQYIKwYBBQUH
MAKGSWh0dHA6Ly9kZXBsb3kuaG9zdHMuYWR2YW5jZWRmaWx0ZXJpbmcubmV0L3B1
YmxpYy9jYS1hZHZhbmNlZGZpbHRlcmluZy5jcnQwDQYJKoZIhvcNAQELBQADggEB
AA3u4AsyzEguhslVbUE/u31noqc3BpbTgn3Gy6+8cDeVQQZuCpAcH9jBehdQkBCh
MANRUe5EdpSGYBHwXVpw47Uz43m+v7xJh7IuSVIOHR5yO/FXZil0KnhEt209J5nh
VbFRZRDpMAjG1UHQY98MARsGVkWrVVHwlAhyZgqZNE1YptI+SwUtQsaTygd0XfXp
X2uLDZiRJ2MrV5onNAa+Uog8dsIPSggzOaGV2X7IEM/3oYnYIS7gGsNhadVW8V3V
qEoZEfs0JNP4lwv0Arn3Di9eNt2w/jcD/+jkAx+sRVTBrmV+mcWlRfn5vhalYIbx
4AyNsurbOQCQmoauCLsyetA=
-----END CERTIFICATE-----
