Certificate:
    Data:
        Version: 3 (0x2)
        Serial Number: 516967 (0x7e367)
        Signature Algorithm: sha1WithRSAEncryption
        Issuer: C=US, O=GeoTrust, Inc., CN=RapidSSL CA
        Validity
            Not Before: Aug 20 20:20:55 2012 GMT
            Not After : Aug 24 00:30:00 2013 GMT
        Subject: serialNumber=HpsekmzKp97enLiWXgSsmfOXdE8TMrqR, OU=GT85714075, OU=See www.rapidssl.com/resources/cps (c)12, OU=Domain Control Validated - RapidSSL(R), CN=mail.kdl-test.ru
        Subject Public Key Info:
            Public Key Algorithm: rsaEncryption
            RSA Public Key: (1024 bit)
                Modulus (1024 bit):
                    00:d5:bc:b9:37:87:4c:dc:65:69:bc:f9:26:bc:d3:
                    64:6c:49:d5:b6:bf:fc:7e:3b:47:83:7c:21:a0:03:
                    34:a5:ef:be:b5:0e:ae:2d:bb:9e:3c:22:9a:75:a4:
                    4b:de:dd:f5:1f:f4:a1:3c:10:96:95:57:34:dd:30:
                    0b:37:73:39:d2:9e:4b:7d:e1:58:5a:f2:bb:43:21:
                    f7:4d:b6:39:72:64:ee:6d:f4:fa:cb:ee:fc:1c:61:
                    aa:13:83:30:ec:60:b9:3a:48:d5:a5:3c:9b:98:29:
                    c3:90:01:27:66:24:7e:3a:de:6e:bf:c5:93:e0:2c:
                    a8:08:0e:4e:11:50:07:df:27
                Exponent: 65537 (0x10001)
        X509v3 extensions:
            X509v3 Authority Key Identifier: 
                keyid:6B:69:3D:6A:18:42:4A:DD:8F:02:65:39:FD:35:24:86:78:91:16:30

            X509v3 Key Usage: critical
                Digital Signature, Key Encipherment
            X509v3 Extended Key Usage: 
                TLS Web Server Authentication, TLS Web Client Authentication
            X509v3 Subject Alternative Name: 
                DNS:mail.kdl-test.ru
            X509v3 CRL Distribution Points: 
                URI:http://rapidssl-crl.geotrust.com/crls/rapidssl.crl

            X509v3 Subject Key Identifier: 
                20:FD:9C:AB:6D:A9:67:56:A4:03:9A:E3:A2:0E:C7:F1:47:FB:26:9F
            X509v3 Basic Constraints: critical
                CA:FALSE
            Authority Information Access: 
                OCSP - URI:http://rapidssl-ocsp.geotrust.com
                CA Issuers - URI:http://rapidssl-aia.geotrust.com/rapidssl.crt

            X509v3 Certificate Policies: 
                Policy: 2.16.840.1.113733.1.7.54
                  CPS: http://www.geotrust.com/resources/cps

    Signature Algorithm: sha1WithRSAEncryption
        a1:34:79:7b:d5:ff:d7:80:08:e7:1e:86:bd:83:a3:67:b6:51:
        86:57:6b:c6:e4:92:2e:b0:14:af:34:f0:37:f9:13:7e:b7:ce:
        20:07:36:52:65:13:84:58:c6:5c:9b:6f:f6:ba:78:b0:0b:4e:
        98:84:61:b6:3f:b4:77:b4:c3:e0:41:d1:5b:bd:39:8f:0a:0d:
        be:4a:91:a1:99:77:f1:e1:df:4e:83:df:2d:83:dd:b1:ee:f0:
        b4:fb:dd:f6:c8:ed:ee:33:c9:74:66:d6:29:a0:25:df:76:59:
        b7:1c:6d:0e:08:59:ff:a7:55:9b:72:90:6c:16:a4:cf:27:0a:
        13:2c:79:6d:f7:e8:17:db:d8:d3:c3:1e:5a:af:0a:01:5e:6c:
        fc:25:eb:a6:60:79:f3:95:f7:a4:b2:e5:f6:04:0a:b6:3d:4c:
        4e:a1:54:7a:f1:46:72:2f:13:17:9a:dc:f6:2d:79:a2:37:88:
        0c:75:c9:35:68:ca:d7:9f:f8:b6:01:99:e0:8b:04:32:ae:87:
        0e:04:8c:99:a4:bb:20:37:35:58:21:7a:1c:63:24:46:d7:d3:
        71:8f:0e:bb:9f:86:bd:71:c0:9f:12:6d:76:50:c8:68:3f:57:
        5c:28:f8:99:0d:61:b1:1f:7e:43:0b:cd:4b:f1:43:83:c3:24:
        af:b5:20:54
-----BEGIN CERTIFICATE-----
MIIEojCCA4qgAwIBAgIDB+NnMA0GCSqGSIb3DQEBBQUAMDwxCzAJBgNVBAYTAlVT
MRcwFQYDVQQKEw5HZW9UcnVzdCwgSW5jLjEUMBIGA1UEAxMLUmFwaWRTU0wgQ0Ew
HhcNMTIwODIwMjAyMDU1WhcNMTMwODI0MDAzMDAwWjCBvzEpMCcGA1UEBRMgSHBz
ZWttektwOTdlbkxpV1hnU3NtZk9YZEU4VE1ycVIxEzARBgNVBAsTCkdUODU3MTQw
NzUxMTAvBgNVBAsTKFNlZSB3d3cucmFwaWRzc2wuY29tL3Jlc291cmNlcy9jcHMg
KGMpMTIxLzAtBgNVBAsTJkRvbWFpbiBDb250cm9sIFZhbGlkYXRlZCAtIFJhcGlk
U1NMKFIpMRkwFwYDVQQDExBtYWlsLmtkbC10ZXN0LnJ1MIGfMA0GCSqGSIb3DQEB
AQUAA4GNADCBiQKBgQDVvLk3h0zcZWm8+Sa802RsSdW2v/x+O0eDfCGgAzSl7761
Dq4tu548Ipp1pEve3fUf9KE8EJaVVzTdMAs3cznSnkt94Vha8rtDIfdNtjlyZO5t
9PrL7vwcYaoTgzDsYLk6SNWlPJuYKcOQASdmJH463m6/xZPgLKgIDk4RUAffJwID
AQABo4IBqzCCAacwHwYDVR0jBBgwFoAUa2k9ahhCSt2PAmU5/TUkhniRFjAwDgYD
VR0PAQH/BAQDAgWgMB0GA1UdJQQWMBQGCCsGAQUFBwMBBggrBgEFBQcDAjAbBgNV
HREEFDASghBtYWlsLmtkbC10ZXN0LnJ1MEMGA1UdHwQ8MDowOKA2oDSGMmh0dHA6
Ly9yYXBpZHNzbC1jcmwuZ2VvdHJ1c3QuY29tL2NybHMvcmFwaWRzc2wuY3JsMB0G
A1UdDgQWBBQg/ZyrbalnVqQDmuOiDsfxR/smnzAMBgNVHRMBAf8EAjAAMHgGCCsG
AQUFBwEBBGwwajAtBggrBgEFBQcwAYYhaHR0cDovL3JhcGlkc3NsLW9jc3AuZ2Vv
dHJ1c3QuY29tMDkGCCsGAQUFBzAChi1odHRwOi8vcmFwaWRzc2wtYWlhLmdlb3Ry
dXN0LmNvbS9yYXBpZHNzbC5jcnQwTAYDVR0gBEUwQzBBBgpghkgBhvhFAQc2MDMw
MQYIKwYBBQUHAgEWJWh0dHA6Ly93d3cuZ2VvdHJ1c3QuY29tL3Jlc291cmNlcy9j
cHMwDQYJKoZIhvcNAQEFBQADggEBAKE0eXvV/9eACOcehr2Do2e2UYZXa8bkki6w
FK808Df5E363ziAHNlJlE4RYxlybb/a6eLALTpiEYbY/tHe0w+BB0Vu9OY8KDb5K
kaGZd/Hh306D3y2D3bHu8LT73fbI7e4zyXRm1imgJd92WbccbQ4IWf+nVZtykGwW
pM8nChMseW336Bfb2NPDHlqvCgFebPwl66ZgefOV96Sy5fYECrY9TE6hVHrxRnIv
Exea3PYteaI3iAx1yTVoytef+LYBmeCLBDKuhw4EjJmkuyA3NVghehxjJEbX03GP
Drufhr1xwJ8SbXZQyGg/V1wo+JkNYbEffkMLzUvxQ4PDJK+1IFQ=
-----END CERTIFICATE-----
Certificate:
    Data:
        Version: 3 (0x2)
        Serial Number: 145105 (0x236d1)
        Signature Algorithm: sha1WithRSAEncryption
        Issuer: C=US, O=GeoTrust Inc., CN=GeoTrust Global CA
        Validity
            Not Before: Feb 19 22:45:05 2010 GMT
            Not After : Feb 18 22:45:05 2020 GMT
        Subject: C=US, O=GeoTrust, Inc., CN=RapidSSL CA
        Subject Public Key Info:
            Public Key Algorithm: rsaEncryption
            RSA Public Key: (2048 bit)
                Modulus (2048 bit):
                    00:c7:71:f8:56:c7:1e:d9:cc:b5:ad:f6:b4:97:a3:
                    fb:a1:e6:0b:50:5f:50:aa:3a:da:0f:fc:3d:29:24:
                    43:c6:10:29:c1:fc:55:40:72:ee:bd:ea:df:9f:b6:
                    41:f4:48:4b:c8:6e:fe:4f:57:12:8b:5b:fa:92:dd:
                    5e:e8:ad:f3:f0:1b:b1:7b:4d:fb:cf:fd:d1:e5:f8:
                    e3:dc:e7:f5:73:7f:df:01:49:cf:8c:56:c1:bd:37:
                    e3:5b:be:b5:4f:8b:8b:f0:da:4f:c7:e3:dd:55:47:
                    69:df:f2:5b:7b:07:4f:3d:e5:ac:21:c1:c8:1d:7a:
                    e8:e7:f6:0f:a1:aa:f5:6f:de:a8:65:4f:10:89:9c:
                    03:f3:89:7a:a5:5e:01:72:33:ed:a9:e9:5a:1e:79:
                    f3:87:c8:df:c8:c5:fc:37:c8:9a:9a:d7:b8:76:cc:
                    b0:3e:e7:fd:e6:54:ea:df:5f:52:41:78:59:57:ad:
                    f1:12:d6:7f:bc:d5:9f:70:d3:05:6c:fa:a3:7d:67:
                    58:dd:26:62:1d:31:92:0c:79:79:1c:8e:cf:ca:7b:
                    c1:66:af:a8:74:48:fb:8e:82:c2:9e:2c:99:5c:7b:
                    2d:5d:9b:bc:5b:57:9e:7c:3a:7a:13:ad:f2:a3:18:
                    5b:2b:59:0f:cd:5c:3a:eb:68:33:c6:28:1d:82:d1:
                    50:8b
                Exponent: 65537 (0x10001)
        X509v3 extensions:
            X509v3 Key Usage: critical
                Certificate Sign, CRL Sign
            X509v3 Subject Key Identifier: 
                6B:69:3D:6A:18:42:4A:DD:8F:02:65:39:FD:35:24:86:78:91:16:30
            X509v3 Authority Key Identifier: 
                keyid:C0:7A:98:68:8D:89:FB:AB:05:64:0C:11:7D:AA:7D:65:B8:CA:CC:4E

            X509v3 Basic Constraints: critical
                CA:TRUE, pathlen:0
            X509v3 CRL Distribution Points: 
                URI:http://crl.geotrust.com/crls/gtglobal.crl

            Authority Information Access: 
                OCSP - URI:http://ocsp.geotrust.com

    Signature Algorithm: sha1WithRSAEncryption
        ab:bc:bc:0a:5d:18:94:e3:c1:b1:c3:a8:4c:55:d6:be:b4:98:
        f1:ee:3c:1c:cd:cf:f3:24:24:5c:96:03:27:58:fc:36:ae:a2:
        2f:8f:f1:fe:da:2b:02:c3:33:bd:c8:dd:48:22:2b:60:0f:a5:
        03:10:fd:77:f8:d0:ed:96:67:4f:fd:ea:47:20:70:54:dc:a9:
        0c:55:7e:e1:96:25:8a:d9:b5:da:57:4a:be:8d:8e:49:43:63:
        a5:6c:4e:27:87:25:eb:5b:6d:fe:a2:7f:38:28:e0:36:ab:ad:
        39:a5:a5:62:c4:b7:5c:58:2c:aa:5d:01:60:a6:62:67:a3:c0:
        c7:62:23:f4:e7:6c:46:ee:b5:d3:80:6a:22:13:d2:2d:3f:74:
        4f:ea:af:8c:5f:b4:38:9c:db:ae:ce:af:84:1e:a6:f6:34:51:
        59:79:d3:e3:75:dc:bc:d7:f3:73:df:92:ec:d2:20:59:6f:9c:
        fb:95:f8:92:76:18:0a:7c:0f:2c:a6:ca:de:8a:62:7b:d8:f3:
        ce:5f:68:bd:8f:3e:c1:74:bb:15:72:3a:16:83:a9:0b:e6:4d:
        99:9c:d8:57:ec:a8:01:51:c7:6f:57:34:5e:ab:4a:2c:42:f6:
        4f:1c:89:78:de:26:4e:f5:6f:93:4c:15:6b:27:56:4d:00:54:
        6c:7a:b7:b7
-----BEGIN CERTIFICATE-----
MIID1TCCAr2gAwIBAgIDAjbRMA0GCSqGSIb3DQEBBQUAMEIxCzAJBgNVBAYTAlVT
MRYwFAYDVQQKEw1HZW9UcnVzdCBJbmMuMRswGQYDVQQDExJHZW9UcnVzdCBHbG9i
YWwgQ0EwHhcNMTAwMjE5MjI0NTA1WhcNMjAwMjE4MjI0NTA1WjA8MQswCQYDVQQG
EwJVUzEXMBUGA1UEChMOR2VvVHJ1c3QsIEluYy4xFDASBgNVBAMTC1JhcGlkU1NM
IENBMIIBIjANBgkqhkiG9w0BAQEFAAOCAQ8AMIIBCgKCAQEAx3H4Vsce2cy1rfa0
l6P7oeYLUF9QqjraD/w9KSRDxhApwfxVQHLuverfn7ZB9EhLyG7+T1cSi1v6kt1e
6K3z8Buxe037z/3R5fjj3Of1c3/fAUnPjFbBvTfjW761T4uL8NpPx+PdVUdp3/Jb
ewdPPeWsIcHIHXro5/YPoar1b96oZU8QiZwD84l6pV4BcjPtqelaHnnzh8jfyMX8
N8iamte4dsywPuf95lTq319SQXhZV63xEtZ/vNWfcNMFbPqjfWdY3SZiHTGSDHl5
HI7PynvBZq+odEj7joLCniyZXHstXZu8W1eefDp6E63yoxhbK1kPzVw662gzxigd
gtFQiwIDAQABo4HZMIHWMA4GA1UdDwEB/wQEAwIBBjAdBgNVHQ4EFgQUa2k9ahhC
St2PAmU5/TUkhniRFjAwHwYDVR0jBBgwFoAUwHqYaI2J+6sFZAwRfap9ZbjKzE4w
EgYDVR0TAQH/BAgwBgEB/wIBADA6BgNVHR8EMzAxMC+gLaArhilodHRwOi8vY3Js
Lmdlb3RydXN0LmNvbS9jcmxzL2d0Z2xvYmFsLmNybDA0BggrBgEFBQcBAQQoMCYw
JAYIKwYBBQUHMAGGGGh0dHA6Ly9vY3NwLmdlb3RydXN0LmNvbTANBgkqhkiG9w0B
AQUFAAOCAQEAq7y8Cl0YlOPBscOoTFXWvrSY8e48HM3P8yQkXJYDJ1j8Nq6iL4/x
/torAsMzvcjdSCIrYA+lAxD9d/jQ7ZZnT/3qRyBwVNypDFV+4ZYlitm12ldKvo2O
SUNjpWxOJ4cl61tt/qJ/OCjgNqutOaWlYsS3XFgsql0BYKZiZ6PAx2Ij9OdsRu61
04BqIhPSLT90T+qvjF+0OJzbrs6vhB6m9jRRWXnT43XcvNfzc9+S7NIgWW+c+5X4
knYYCnwPLKbK3opie9jzzl9ovY8+wXS7FXI6FoOpC+ZNmZzYV+yoAVHHb1c0XqtK
LEL2TxyJeN4mTvVvk0wVaydWTQBUbHq3tw==
-----END CERTIFICATE-----
