Certificate:
    Data:
        Version: 3 (0x2)
        Serial Number: 22 (0x16)
        Signature Algorithm: sha256WithRSAEncryption
        Issuer: O=advancedfiltering, OU=hosts, CN=Advanced Filtering CA
        Validity
            Not Before: Jun 30 06:14:37 2013 GMT
            Not After : Jun 28 06:14:37 2023 GMT
        Subject: O=advancedfiltering, OU=hosts, CN=tests-bwlist
        Subject Public Key Info:
            Public Key Algorithm: rsaEncryption
            RSA Public Key: (2048 bit)
                Modulus (2048 bit):
                    00:b8:8b:92:5d:f4:75:57:e3:d1:ee:bc:cd:d2:db:
                    b8:1c:73:e4:50:f0:70:de:98:e2:c0:32:8d:db:92:
                    05:52:5b:21:91:15:08:92:c8:87:cf:3e:03:a2:18:
                    4c:0e:c7:8c:a1:50:1f:d3:ec:98:f8:a3:05:b1:96:
                    12:aa:aa:cc:b4:3a:f9:b7:02:3f:d1:c6:79:74:3d:
                    ed:8f:cf:d5:e6:ea:9c:b8:e4:19:8f:3e:1d:63:89:
                    15:02:99:a3:71:d3:bd:21:69:64:f6:59:48:1f:af:
                    a4:4a:0e:47:4e:fc:ce:27:c3:01:ca:cd:39:57:7a:
                    eb:2b:39:71:7d:4f:b0:01:f1:17:26:6e:5a:7c:e8:
                    31:72:7e:55:59:52:42:8a:c7:42:da:ba:ca:3b:7e:
                    c7:df:56:1a:3c:c6:a2:2e:e5:9b:c1:76:18:13:4a:
                    e7:fd:d3:0d:25:1b:24:77:54:e5:8a:65:7d:f5:ed:
                    c7:13:74:d4:52:03:ae:07:c3:2c:83:5a:3a:a2:dd:
                    8c:c2:32:89:0b:5a:d8:ec:85:37:01:da:a0:94:ac:
                    2a:54:80:54:da:40:52:84:08:24:e6:89:f9:d9:8d:
                    5d:7e:fc:40:9e:cb:8c:9c:f7:e8:4a:77:8a:3f:d5:
                    ff:62:86:d3:7c:d0:43:6d:d5:95:43:fa:d5:f3:06:
                    10:73
                Exponent: 65537 (0x10001)
        X509v3 extensions:
            X509v3 Basic Constraints: 
                CA:FALSE
            X509v3 Subject Key Identifier: 
                6F:68:CE:A4:9C:44:70:74:D0:3B:5E:F7:53:DE:32:CC:57:5F:ED:8F
            X509v3 Authority Key Identifier: 
                keyid:C6:7C:3F:DA:E9:AC:6B:2F:A3:8F:26:03:15:0B:DC:65:08:51:98:9D
                DirName:/O=advancedfiltering/OU=hosts/CN=Advanced Filtering CA
                serial:8C:32:88:59:79:7B:3C:CC

            X509v3 Extended Key Usage: 
                TLS Web Server Authentication, TLS Web Client Authentication
            X509v3 Key Usage: 
                Digital Signature, Key Encipherment
            X509v3 CRL Distribution Points: 
                URI:http://deploy.hosts.advancedfiltering.net/public/ca-advancedfiltering.crl

            Authority Information Access: 
                CA Issuers - URI:http://deploy.hosts.advancedfiltering.net/public/ca-advancedfiltering.crt

    Signature Algorithm: sha256WithRSAEncryption
        74:a9:67:07:ca:69:e7:35:cd:a6:c9:e2:c6:d5:ba:11:a7:73:
        81:b1:ba:84:05:e0:48:b3:1c:30:6f:ac:5b:6e:61:66:4a:4a:
        b4:9b:e0:10:a1:a6:cb:05:23:7c:32:b7:51:4e:21:3a:89:bb:
        fe:b0:f4:83:4d:4b:ae:96:42:76:93:b1:05:18:cc:c9:04:19:
        ee:94:c7:ae:33:b7:b6:dd:2f:43:2a:ea:1d:61:84:b6:e0:36:
        14:c1:67:df:37:8b:f6:b1:c8:f2:80:7e:ba:45:0b:1e:fd:0b:
        7d:b7:59:1b:9e:9c:52:6a:b7:0e:4b:ae:d9:9d:2e:03:94:7f:
        75:85:ba:2e:1b:9d:25:a4:5c:ec:85:fa:e5:da:05:9e:bf:8f:
        9e:cd:c9:7f:86:55:f9:e4:d5:8a:91:d6:36:f8:9b:c5:42:28:
        7e:54:27:2d:20:7e:7f:1b:c9:79:09:b4:84:c1:b6:33:21:81:
        8e:2b:a9:16:1c:49:f4:37:23:81:7d:f1:63:b8:59:e5:cf:f5:
        be:d3:a5:a5:c8:8c:d3:37:64:47:07:b1:44:15:fc:37:5d:09:
        3f:62:76:f0:be:47:b1:3c:3c:73:bb:c7:5f:33:8e:89:04:fa:
        9f:2a:49:4c:f0:9a:32:2a:13:45:7b:bc:c6:49:fa:a6:27:34:
        ed:31:ad:7b
-----BEGIN CERTIFICATE-----
MIIEpzCCA4+gAwIBAgIBFjANBgkqhkiG9w0BAQsFADBMMRowGAYDVQQKExFhZHZh
bmNlZGZpbHRlcmluZzEOMAwGA1UECxMFaG9zdHMxHjAcBgNVBAMTFUFkdmFuY2Vk
IEZpbHRlcmluZyBDQTAeFw0xMzA2MzAwNjE0MzdaFw0yMzA2MjgwNjE0MzdaMEMx
GjAYBgNVBAoTEWFkdmFuY2VkZmlsdGVyaW5nMQ4wDAYDVQQLEwVob3N0czEVMBMG
A1UEAxMMdGVzdHMtYndsaXN0MIIBIjANBgkqhkiG9w0BAQEFAAOCAQ8AMIIBCgKC
AQEAuIuSXfR1V+PR7rzN0tu4HHPkUPBw3pjiwDKN25IFUlshkRUIksiHzz4DohhM
DseMoVAf0+yY+KMFsZYSqqrMtDr5twI/0cZ5dD3tj8/V5uqcuOQZjz4dY4kVApmj
cdO9IWlk9llIH6+kSg5HTvzOJ8MBys05V3rrKzlxfU+wAfEXJm5afOgxcn5VWVJC
isdC2rrKO37H31YaPMaiLuWbwXYYE0rn/dMNJRskd1TlimV99e3HE3TUUgOuB8Ms
g1o6ot2MwjKJC1rY7IU3AdqglKwqVIBU2kBShAgk5on52Y1dfvxAnsuMnPfoSneK
P9X/YobTfNBDbdWVQ/rV8wYQcwIDAQABo4IBmzCCAZcwCQYDVR0TBAIwADAdBgNV
HQ4EFgQUb2jOpJxEcHTQO173U94yzFdf7Y8wfAYDVR0jBHUwc4AUxnw/2umsay+j
jyYDFQvcZQhRmJ2hUKROMEwxGjAYBgNVBAoTEWFkdmFuY2VkZmlsdGVyaW5nMQ4w
DAYDVQQLEwVob3N0czEeMBwGA1UEAxMVQWR2YW5jZWQgRmlsdGVyaW5nIENBggkA
jDKIWXl7PMwwHQYDVR0lBBYwFAYIKwYBBQUHAwEGCCsGAQUFBwMCMAsGA1UdDwQE
AwIFoDBaBgNVHR8EUzBRME+gTaBLhklodHRwOi8vZGVwbG95Lmhvc3RzLmFkdmFu
Y2VkZmlsdGVyaW5nLm5ldC9wdWJsaWMvY2EtYWR2YW5jZWRmaWx0ZXJpbmcuY3Js
MGUGCCsGAQUFBwEBBFkwVzBVBggrBgEFBQcwAoZJaHR0cDovL2RlcGxveS5ob3N0
cy5hZHZhbmNlZGZpbHRlcmluZy5uZXQvcHVibGljL2NhLWFkdmFuY2VkZmlsdGVy
aW5nLmNydDANBgkqhkiG9w0BAQsFAAOCAQEAdKlnB8pp5zXNpsnixtW6EadzgbG6
hAXgSLMcMG+sW25hZkpKtJvgEKGmywUjfDK3UU4hOom7/rD0g01LrpZCdpOxBRjM
yQQZ7pTHrjO3tt0vQyrqHWGEtuA2FMFn3zeL9rHI8oB+ukULHv0LfbdZG56cUmq3
Dkuu2Z0uA5R/dYW6LhudJaRc7IX65doFnr+Pns3Jf4ZV+eTVipHWNvibxUIoflQn
LSB+fxvJeQm0hMG2MyGBjiupFhxJ9DcjgX3xY7hZ5c/1vtOlpciM0zdkRwexRBX8
N10JP2J28L5HsTw8c7vHXzOOiQT6nypJTPCaMioTRXu8xkn6pic07TGtew==
-----END CERTIFICATE-----
