Certificate:
    Data:
        Version: 3 (0x2)
        Serial Number: 3 (0x3)
    Signature Algorithm: sha256WithRSAEncryption
        Issuer: O=advancedfiltering, OU=tests, CN=advancedfiltering test CA
        Validity
            Not Before: Nov 21 16:05:45 2014 GMT
            Not After : Nov 18 16:05:45 2024 GMT
        Subject: O=advancedfiltering, OU=tests, CN=revoked
        Subject Public Key Info:
            Public Key Algorithm: rsaEncryption
                Public-Key: (2048 bit)
                Modulus:
                    00:b1:52:00:65:2f:a6:75:2f:70:bf:de:62:74:86:
                    f7:db:fc:5f:bb:c3:9d:ac:62:fa:30:d1:a8:c9:bf:
                    a8:b5:cf:19:d2:ac:26:d8:23:73:6a:20:f1:4f:10:
                    f6:a3:1f:5b:1f:38:21:34:a2:15:e2:7b:77:c7:dc:
                    cf:0a:7d:b3:2b:4e:5e:7d:0f:6f:92:a1:6c:60:21:
                    3b:39:1d:a4:2e:7e:c4:dc:12:b4:05:cf:9c:86:83:
                    92:0f:ad:27:72:87:29:2e:10:d4:d4:ac:cb:16:de:
                    c5:76:3c:87:75:9f:e1:ac:d1:16:66:7e:89:22:df:
                    ae:92:98:c4:87:4e:5f:63:64:a5:0b:4e:b6:3c:a8:
                    ad:b6:2d:12:8a:d2:a8:08:41:63:fc:20:b5:59:fd:
                    af:38:35:c9:7e:76:e7:f0:e5:d9:a9:f6:75:e2:a3:
                    2a:34:24:4d:0e:15:de:b7:a0:42:d5:d9:59:b2:a0:
                    af:18:f5:2a:d6:94:47:cc:b7:c8:b3:b2:b6:d6:6e:
                    cb:6d:b2:ed:77:88:2e:21:eb:e6:94:7d:02:a5:eb:
                    e8:c6:14:e3:11:5f:a6:0f:e0:0a:7a:6e:80:7b:09:
                    7a:d4:e8:9f:f0:eb:e9:9a:cd:a2:8c:50:6c:ad:de:
                    79:8c:81:e9:c4:54:02:20:28:d9:c5:33:a8:d8:7f:
                    34:b7
                Exponent: 65537 (0x10001)
        X509v3 extensions:
            X509v3 Basic Constraints: 
                CA:FALSE
            X509v3 Subject Key Identifier: 
                D9:3B:50:CF:B6:8F:A0:5A:4C:41:C3:92:80:3B:70:FE:17:1A:88:58
            X509v3 Authority Key Identifier: 
                keyid:94:C5:DF:37:7B:11:51:64:52:E8:02:4A:95:38:3F:8B:59:3F:68:0B
                DirName:/O=advancedfiltering/OU=tests/CN=advancedfiltering test CA
                serial:97:85:0D:C1:6C:0F:C4:56

            X509v3 Extended Key Usage: 
                TLS Web Server Authentication, TLS Web Client Authentication
            X509v3 Key Usage: 
                Digital Signature, Key Encipherment
            X509v3 CRL Distribution Points: 

                Full Name:
                  URI:http://deploy.services.advancedfiltering.net/public/ca-advancedfiltering.crl

            Authority Information Access: 
                CA Issuers - URI:http://deploy.services.advancedfiltering.net/public/ca-advancedfiltering.crt

    Signature Algorithm: sha256WithRSAEncryption
         7d:5c:fa:25:5b:26:c4:5e:54:72:ab:74:5b:6f:5d:f0:57:c5:
         f8:8b:ce:98:5a:4b:a7:de:42:b7:3f:2d:84:cf:5f:09:fd:64:
         16:27:ac:f5:df:fc:f1:c2:c7:b8:79:fe:d1:99:4c:a7:5c:92:
         6d:49:86:79:e5:9c:92:70:a6:38:36:af:63:e0:1f:3b:e0:c2:
         13:21:59:16:9d:e2:21:d8:43:30:8f:a1:56:c2:11:2e:20:6b:
         ec:1d:d5:5e:14:81:d2:ba:14:b1:ad:35:9d:cd:e2:8f:61:4f:
         5f:ed:f2:7c:ca:c5:ae:34:b1:1f:4a:9b:3b:5e:47:97:00:74:
         1f:b1:ee:3d:91:09:e1:17:33:0f:10:06:15:f1:21:aa:d4:cd:
         ab:39:d8:79:9c:dc:8c:5e:29:de:77:4c:51:6e:93:df:36:ac:
         a5:5e:87:fe:7e:17:a8:dd:d2:ea:28:b2:b8:af:bd:f8:10:b2:
         25:b3:8f:c0:41:17:00:5b:a8:6b:38:cd:e6:67:14:cc:29:cd:
         38:52:33:f4:dc:1c:48:14:e5:1a:f4:85:64:d3:82:7d:56:09:
         68:56:9e:c5:86:c5:35:44:0c:45:85:af:27:11:49:de:6c:dd:
         ea:f9:3b:04:a8:c6:2a:74:e7:dd:9b:54:9c:08:8f:bb:4f:5a:
         c5:0e:08:42
-----BEGIN CERTIFICATE-----
MIIEsTCCA5mgAwIBAgIBAzANBgkqhkiG9w0BAQsFADBQMRowGAYDVQQKExFhZHZh
bmNlZGZpbHRlcmluZzEOMAwGA1UECxMFdGVzdHMxIjAgBgNVBAMTGWFkdmFuY2Vk
ZmlsdGVyaW5nIHRlc3QgQ0EwHhcNMTQxMTIxMTYwNTQ1WhcNMjQxMTE4MTYwNTQ1
WjA+MRowGAYDVQQKExFhZHZhbmNlZGZpbHRlcmluZzEOMAwGA1UECxMFdGVzdHMx
EDAOBgNVBAMTB3Jldm9rZWQwggEiMA0GCSqGSIb3DQEBAQUAA4IBDwAwggEKAoIB
AQCxUgBlL6Z1L3C/3mJ0hvfb/F+7w52sYvow0ajJv6i1zxnSrCbYI3NqIPFPEPaj
H1sfOCE0ohXie3fH3M8KfbMrTl59D2+SoWxgITs5HaQufsTcErQFz5yGg5IPrSdy
hykuENTUrMsW3sV2PId1n+Gs0RZmfoki366SmMSHTl9jZKULTrY8qK22LRKK0qgI
QWP8ILVZ/a84Ncl+dufw5dmp9nXioyo0JE0OFd63oELV2VmyoK8Y9SrWlEfMt8iz
srbWbsttsu13iC4h6+aUfQKl6+jGFOMRX6YP4Ap6boB7CXrU6J/w6+mazaKMUGyt
3nmMgenEVAIgKNnFM6jYfzS3AgMBAAGjggGmMIIBojAJBgNVHRMEAjAAMB0GA1Ud
DgQWBBTZO1DPto+gWkxBw5KAO3D+FxqIWDCBgAYDVR0jBHkwd4AUlMXfN3sRUWRS
6AJKlTg/i1k/aAuhVKRSMFAxGjAYBgNVBAoTEWFkdmFuY2VkZmlsdGVyaW5nMQ4w
DAYDVQQLEwV0ZXN0czEiMCAGA1UEAxMZYWR2YW5jZWRmaWx0ZXJpbmcgdGVzdCBD
QYIJAJeFDcFsD8RWMB0GA1UdJQQWMBQGCCsGAQUFBwMBBggrBgEFBQcDAjALBgNV
HQ8EBAMCBaAwXQYDVR0fBFYwVDBSoFCgToZMaHR0cDovL2RlcGxveS5zZXJ2aWNl
cy5hZHZhbmNlZGZpbHRlcmluZy5uZXQvcHVibGljL2NhLWFkdmFuY2VkZmlsdGVy
aW5nLmNybDBoBggrBgEFBQcBAQRcMFowWAYIKwYBBQUHMAKGTGh0dHA6Ly9kZXBs
b3kuc2VydmljZXMuYWR2YW5jZWRmaWx0ZXJpbmcubmV0L3B1YmxpYy9jYS1hZHZh
bmNlZGZpbHRlcmluZy5jcnQwDQYJKoZIhvcNAQELBQADggEBAH1c+iVbJsReVHKr
dFtvXfBXxfiLzphaS6feQrc/LYTPXwn9ZBYnrPXf/PHCx7h5/tGZTKdckm1Jhnnl
nJJwpjg2r2PgHzvgwhMhWRad4iHYQzCPoVbCES4ga+wd1V4UgdK6FLGtNZ3N4o9h
T1/t8nzKxa40sR9KmzteR5cAdB+x7j2RCeEXMw8QBhXxIarUzas52Hmc3IxeKd53
TFFuk982rKVeh/5+F6jd0uoosrivvfgQsiWzj8BBFwBbqGs4zeZnFMwpzThSM/Tc
HEgU5Rr0hWTTgn1WCWhWnsWGxTVEDEWFrycRSd5s3er5OwSoxip0592bVJwIj7tP
WsUOCEI=
-----END CERTIFICATE-----
